(dp1
S''
(lp2
S'0.000000'
p3
asS'gnDELTA_TE'
p4
(lp5
S'0.000000'
p6
asS'spUSER'
p7
(lp8
S'0.000000'
p9
aS'0.000000'
p10
aS'0.000000'
p11
aS'0.000000'
p12
aS'0.000000'
p13
asS'spDYN_B0_TE'
p14
(lp15
S'0.000000'
p16
aS'0.000000'
p17
asS'spSLEWMAX'
p18
(lp19
S'139.998993'
p20
asS'spSTYPE'
p21
(lp22
S'0.000000'
p23
asS'spUSTYPE'
p24
(lp25
S'0.000000'
p26
asS's_offc'
p27
(lp28
S'-52.349998'
p29
asS'spUSR'
p30
(lp31
S'1.000000'
p32
asS'gnNUMSLICE'
p33
(lp34
S'20'
p35
asS'spT2MATCH'
p36
(lp37
S'0.000000'
p38
asS'spFOVZ'
p39
(lp40
S'0.005000'
p41
asS'gnNUMECHOES'
p42
(lp43
S'1'
asS'spgrad_nb'
p44
(lp45
S'642.000000'
p46
asS'spTESHIFT'
p47
(lp48
S'0.000000'
p49
asS'spREADPTS'
p50
(lp51
S'825.000000'
p52
asS'spINOUT_ON'
p53
(lp54
S'0'
asS'spRESXY'
p55
(lp56
S'0.001000'
p57
asS'spFOVXY'
p58
(lp59
S'0.240000'
p60
asS'spINOUT_OPT'
p61
(lp62
S'0'
asS'spDWELL'
p63
(lp64
S'0.004800'
p65
asS'spARMS'
p66
(lp67
S'79.000000'
p68
asS'spTESHIFT_ON'
p69
(lp70
S'0'
asS'headerType'
p71
S'BNIspiral'
p72
sS'spgrad_nc'
p73
(lp74
S'769.000000'
p75
asS'gnDATE'
p76
(lp77
S'11/06/1315:59:24'
p78
asS'spgrad_na'
p79
(lp80
S'619.000000'
p81
asS'spGAMMA'
p82
(lp83
S'42.577469'
p84
asS'gnTE'
p85
(lp86
S'0.971600'
p87
aS'0.000000'
p88
asS'spgrad_nd'
p89
(lp90
S'769.000000'
p91
asS'gnTR'
p92
(lp93
S'164.619995'
p94
asS'spDYN_B0_ON'
p95
(lp96
S'0'
asS'gnUSER'
p97
(lp98
S'0.000000'
p99
aS'0.000000'
p100
aS'0.000000'
p101
aS'0.000000'
p102
aS'0.000000'
p103
asS'gnAPP_TYPE'
p104
(lp105
S'200'
p106
asS'spgrad_nt'
p107
(lp108
S'785.000000'
p109
asS'spGMAX'
p110
(lp111
S'20.249001'
p112
asS'spmaxarray'
p113
(lp114
S'31998.000000'
p115
asS'spDYN_GOLDANGLE_ON'
p116
(lp117
S'0'
asS'spRESZ'
p118
(lp119
S'0.005000'
p120
asS'gnDYN_ON'
p121
(lp122
S'0.000000'
p123
asS'p_offc'
p124
(lp125
S'0.000000'
p126
asS'spGTYPE'
p127
(lp128
S'2.000000'
p129
asS'gnPS_TYPE'
p130
(lp131
S'101'
p132
asS'm_offc'
p133
(lp134
S'0.000000'
p135
asS'spMGFRQ'
p136
(lp137
S'1.000000'
p138
asS'spUS0'
p139
(lp140
S'1.000000'
p141
asS'spUS1'
p142
(lp143
S'1.000000'
p144
as.