(dp0
S'HEADER'
p1
S'This is a GPI Network File'
p2
sS'GPI_VERSION'
p3
S'0.2.0-n1'
p4
sS'PLATFORM'
p5
(dp6
S'OSX'
p7
S'10.10'
p8
sS'PYTHON_VERSION'
p9
S'2.7.6'
p10
sS'PYTHON'
p11
S'CPython'
p12
sS'TOTAL_PHYMEM'
p13
L17179869184L
sS'NUM_CPUS'
p14
I8
sS'HOSTNAME'
p15
S'tron.local'
p16
sg5
S'Darwin-14.0.0-x86_64-i386-64bit'
p17
sS'TOTAL_PHYMEM_STR'
p18
S'16.00 GB'
p19
sS'OS'
p20
S'Darwin'
p21
ssS'DATETIME'
p22
S'Fri Nov  7 13:21:15 2014'
p23
sS'NETWORK_VERSION'
p24
S'2'
p25
sS'layouts'
p26
(lp27
sS'TOTAL_PMEM'
p28
S'13768000'
p29
sS'nodes'
p30
(dp31
S'macroNodes'
p32
(lp33
sg30
(lp34
(dp35
S'widget_settings'
p36
(dp37
S'parms'
p38
(lp39
(dp40
S'type'
p41
S"<class 'gpi.widgets.PushButton'>"
p42
sS'name'
p43
S'compute'
p44
sS'kwargs'
p45
(dp46
S'outport'
p47
I00
sS'quietval'
p48
NsS'val'
p49
I01
sS'collapsed'
p50
I00
sS'inport'
p51
I00
sS'visible'
p52
I01
sS'toggle'
p53
I01
sS'button_title'
p54
V
p55
sS'id'
p56
I4673952664
ssa(dp57
g41
S"<class 'gpi.widgets.TextBox'>"
p58
sg43
S'Info:'
p59
sg45
(dp60
S'openExternalLinks'
p61
I00
sS'outport'
p62
I00
sS'quietval'
p63
Nsg49
S'Samples: 825\nTau (ms): 3.96\nTGrad (ms): 4.9216\nTotal interleaves: 79'
p64
sS'collapsed'
p65
I00
sS'inport'
p66
I00
sS'visible'
p67
I01
sS'wordwrap'
p68
I00
sS'id'
p69
I4673953424
ssa(dp70
g41
S"<class 'gpi.widgets.DoubleSpinBox'>"
p71
sg43
S'AD dwell time (us)'
p72
sg45
(dp73
S'outport'
p74
I00
sS'quietval'
p75
Nsg49
F4.8
sS'min'
p76
F0.1
sS'max'
p77
F1.7976931348623157e+308
sS'collapsed'
p78
I00
sS'wrapping'
p79
I00
sS'immediate'
p80
I00
sS'label'
p81
g55
sS'singlestep'
p82
F1.0
sS'visible'
p83
I01
sS'inport'
p84
I00
sS'decimals'
p85
I6
sS'id'
p86
I4674011368
ssa(dp87
g41
S"<class 'gpi.widgets.DoubleSpinBox'>"
p88
sg43
S'x delay (us)'
p89
sg45
(dp90
S'outport'
p91
I00
sS'quietval'
p92
Nsg49
F-9.0
sS'min'
p93
F-100.0
sS'max'
p94
F100.0
sS'collapsed'
p95
I00
sS'wrapping'
p96
I00
sS'immediate'
p97
I00
sS'label'
p98
g55
sS'singlestep'
p99
F1.0
sS'visible'
p100
I01
sS'inport'
p101
I00
sS'decimals'
p102
I2
sS'id'
p103
I4674012280
ssa(dp104
g41
S"<class 'gpi.widgets.DoubleSpinBox'>"
p105
sg43
S'y delay (us)'
p106
sg45
(dp107
S'outport'
p108
I00
sS'quietval'
p109
Nsg49
F-9.0
sS'min'
p110
F-100.0
sS'max'
p111
F100.0
sS'collapsed'
p112
I00
sS'wrapping'
p113
I00
sS'immediate'
p114
I00
sS'label'
p115
g55
sS'singlestep'
p116
F1.0
sS'visible'
p117
I01
sS'inport'
p118
I00
sS'decimals'
p119
I2
sS'id'
p120
I4674013192
ssa(dp121
g41
S"<class 'gpi.widgets.DoubleSpinBox'>"
p122
sg43
S'z delay (us)'
p123
sg45
(dp124
S'outport'
p125
I00
sS'quietval'
p126
Nsg49
F0.0
sS'min'
p127
F-100.0
sS'max'
p128
F100.0
sS'collapsed'
p129
I00
sS'wrapping'
p130
I00
sS'immediate'
p131
I00
sS'label'
p132
g55
sS'singlestep'
p133
F1.0
sS'visible'
p134
I01
sS'inport'
p135
I00
sS'decimals'
p136
I2
sS'id'
p137
I4674014104
ssa(dp138
g41
S"<class 'gpi.widgets.DoubleSpinBox'>"
p139
sg43
S'MaxSlw (mT/m/ms)'
p140
sg45
(dp141
S'outport'
p142
I00
sS'quietval'
p143
Nsg49
F139.998993
sS'min'
p144
F0.01
sS'max'
p145
F1.7976931348623157e+308
sS'collapsed'
p146
I00
sS'wrapping'
p147
I00
sS'immediate'
p148
I00
sS'label'
p149
g55
sS'singlestep'
p150
F1.0
sS'visible'
p151
I01
sS'inport'
p152
I00
sS'decimals'
p153
I6
sS'id'
p154
I4674015016
ssa(dp155
g41
S"<class 'gpi.widgets.DoubleSpinBox'>"
p156
sg43
S'MaxGrd (mT/m)'
p157
sg45
(dp158
S'outport'
p159
I00
sS'quietval'
p160
Nsg49
F20.249001
sS'min'
p161
F0.01
sS'max'
p162
F1.7976931348623157e+308
sS'collapsed'
p163
I00
sS'wrapping'
p164
I00
sS'immediate'
p165
I00
sS'label'
p166
g55
sS'singlestep'
p167
F1.0
sS'visible'
p168
I01
sS'inport'
p169
I00
sS'decimals'
p170
I6
sS'id'
p171
I4673893192
ssa(dp172
g41
S"<class 'gpi.widgets.DoubleSpinBox'>"
p173
sg43
S'Gam (kHz/mT/ms)'
p174
sg45
(dp175
S'outport'
p176
I00
sS'quietval'
p177
Nsg49
F42.577469
sS'min'
p178
F0.01
sS'max'
p179
F1.7976931348623157e+308
sS'collapsed'
p180
I00
sS'wrapping'
p181
I00
sS'immediate'
p182
I00
sS'label'
p183
g55
sS'singlestep'
p184
F1.0
sS'visible'
p185
I01
sS'inport'
p186
I00
sS'decimals'
p187
I6
sS'id'
p188
I4673894104
ssa(dp189
g41
S"<class 'gpi.widgets.DoubleSpinBox'>"
p190
sg43
S'Fov X-Y (cm)'
p191
sg45
(dp192
S'outport'
p193
I00
sS'quietval'
p194
Nsg49
F24.0
sS'min'
p195
F0.1
sS'max'
p196
F1.7976931348623157e+308
sS'collapsed'
p197
I00
sS'wrapping'
p198
I00
sS'immediate'
p199
I00
sS'label'
p200
g55
sS'singlestep'
p201
F1.0
sS'visible'
p202
I01
sS'inport'
p203
I00
sS'decimals'
p204
I6
sS'id'
p205
I4673895016
ssa(dp206
g41
S"<class 'gpi.widgets.DoubleSpinBox'>"
p207
sg43
S'Fov Z (cm)'
p208
sg45
(dp209
S'outport'
p210
I00
sS'quietval'
p211
Nsg49
F0.5
sS'min'
p212
F0.1
sS'max'
p213
F1.7976931348623157e+308
sS'collapsed'
p214
I00
sS'wrapping'
p215
I00
sS'immediate'
p216
I00
sS'label'
p217
g55
sS'singlestep'
p218
F1.0
sS'visible'
p219
I01
sS'inport'
p220
I00
sS'decimals'
p221
I6
sS'id'
p222
I4673895928
ssa(dp223
g41
S"<class 'gpi.widgets.DoubleSpinBox'>"
p224
sg43
S'ImgRes X-Y (cm)'
p225
sg45
(dp226
S'outport'
p227
I00
sS'quietval'
p228
Nsg49
F0.1
sS'min'
p229
F0.01
sS'max'
p230
F1.7976931348623157e+308
sS'collapsed'
p231
I00
sS'wrapping'
p232
I00
sS'immediate'
p233
I00
sS'label'
p234
g55
sS'singlestep'
p235
F0.01
sS'visible'
p236
I01
sS'inport'
p237
I00
sS'decimals'
p238
I6
sS'id'
p239
I4674052632
ssa(dp240
g41
S"<class 'gpi.widgets.DoubleSpinBox'>"
p241
sg43
S'ImgRes Z (cm)'
p242
sg45
(dp243
S'outport'
p244
I00
sS'quietval'
p245
Nsg49
F0.5
sS'min'
p246
F0.01
sS'max'
p247
F1.7976931348623157e+308
sS'collapsed'
p248
I00
sS'wrapping'
p249
I00
sS'immediate'
p250
I00
sS'label'
p251
g55
sS'singlestep'
p252
F0.01
sS'visible'
p253
I01
sS'inport'
p254
I00
sS'decimals'
p255
I6
sS'id'
p256
I4674053544
ssa(dp257
g41
S"<class 'gpi.widgets.ExclusivePushButtons'>"
p258
sg43
S'stype'
p259
sg45
(dp260
S'outport'
p261
I00
sS'quietval'
p262
Nsg49
I0
sS'collapsed'
p263
I00
sS'inport'
p264
I00
sS'visible'
p265
I01
sS'id'
p266
I4674054456
ssa(dp267
g41
S"<class 'gpi.widgets.DoubleSpinBox'>"
p268
sg43
S'# of Spiral Arms'
p269
sg45
(dp270
S'outport'
p271
I00
sS'quietval'
p272
Nsg49
F79.0
sS'min'
p273
F0.0
sS'max'
p274
F1.7976931348623157e+308
sS'collapsed'
p275
I00
sS'wrapping'
p276
I00
sS'immediate'
p277
I00
sS'label'
p278
g55
sS'singlestep'
p279
F1.0
sS'visible'
p280
I01
sS'inport'
p281
I00
sS'decimals'
p282
I2
sS'id'
p283
I4674055368
ssa(dp284
g41
S"<class 'gpi.widgets.SpinBox'>"
p285
sg43
S'# of Hubs'
p286
sg45
(dp287
S'outport'
p288
I00
sS'quietval'
p289
Nsg49
I3
sS'min'
p290
I1
sS'max'
p291
I3
sS'collapsed'
p292
I00
sS'wrapping'
p293
I00
sS'immediate'
p294
I00
sS'label'
p295
g55
sS'singlestep'
p296
I1
sS'visible'
p297
I00
sS'inport'
p298
I00
sS'id'
p299
I4674060520
ssa(dp300
g41
S"<class 'gpi.widgets.DoubleSpinBox'>"
p301
sg43
S'Alpha0'
p302
sg45
(dp303
S'outport'
p304
I00
sS'quietval'
p305
Nsg49
F45.0
sS'min'
p306
F0.0
sS'max'
p307
F90.0
sS'collapsed'
p308
I00
sS'wrapping'
p309
I00
sS'immediate'
p310
I00
sS'label'
p311
g55
sS'singlestep'
p312
F1.0
sS'visible'
p313
I00
sS'inport'
p314
I00
sS'decimals'
p315
I2
sS'id'
p316
I4674061432
ssa(dp317
g41
S"<class 'gpi.widgets.DoubleSpinBox'>"
p318
sg43
S'usamp st (0 - 1)'
p319
sg45
(dp320
S'outport'
p321
I00
sS'quietval'
p322
Nsg49
F1.0
sS'min'
p323
F0.0
sS'max'
p324
F1.0
sS'collapsed'
p325
I00
sS'wrapping'
p326
I00
sS'immediate'
p327
I00
sS'label'
p328
g55
sS'singlestep'
p329
F0.01
sS'visible'
p330
I01
sS'inport'
p331
I00
sS'decimals'
p332
I2
sS'id'
p333
I4674062344
ssa(dp334
g41
S"<class 'gpi.widgets.DoubleSpinBox'>"
p335
sg43
S'usamp end (0 - 1)'
p336
sg45
(dp337
S'outport'
p338
I00
sS'quietval'
p339
Nsg49
F1.0
sS'min'
p340
F0.0
sS'max'
p341
F1.0
sS'collapsed'
p342
I00
sS'wrapping'
p343
I00
sS'immediate'
p344
I00
sS'label'
p345
g55
sS'singlestep'
p346
F0.01
sS'visible'
p347
I01
sS'inport'
p348
I00
sS'decimals'
p349
I2
sS'id'
p350
I4674063256
ssa(dp351
g41
S"<class 'gpi.widgets.DoubleSpinBox'>"
p352
sg43
S'max undersample'
p353
sg45
(dp354
S'outport'
p355
I00
sS'quietval'
p356
Nsg49
F1.0
sS'min'
p357
F0.0
sS'max'
p358
F100.0
sS'collapsed'
p359
I00
sS'wrapping'
p360
I00
sS'immediate'
p361
I00
sS'label'
p362
g55
sS'singlestep'
p363
F1.0
sS'visible'
p364
I01
sS'inport'
p365
I00
sS'decimals'
p366
I2
sS'id'
p367
I4674064168
ssa(dp368
g41
S"<class 'gpi.widgets.ExclusivePushButtons'>"
p369
sg43
S'ustype'
p370
sg45
(dp371
S'outport'
p372
I00
sS'quietval'
p373
Nsg49
I0
sS'collapsed'
p374
I00
sS'inport'
p375
I00
sS'visible'
p376
I01
sS'id'
p377
I4673936432
ssa(dp378
g41
S"<class 'gpi.widgets.DoubleSpinBox'>"
p379
sg43
S'Max G Freq (kHz)'
p380
sg45
(dp381
S'outport'
p382
I00
sS'quietval'
p383
Nsg49
F1.0
sS'min'
p384
F0.0
sS'max'
p385
F1.7976931348623157e+308
sS'collapsed'
p386
I00
sS'wrapping'
p387
I00
sS'immediate'
p388
I00
sS'label'
p389
g55
sS'singlestep'
p390
F1.0
sS'visible'
p391
I01
sS'inport'
p392
I00
sS'decimals'
p393
I2
sS'id'
p394
I4673935368
ssa(dp395
g41
S"<class 'gpi.widgets.DoubleSpinBox'>"
p396
sg43
S'T2 Match (ms)'
p397
sg45
(dp398
S'outport'
p399
I00
sS'quietval'
p400
Nsg49
F0.0
sS'min'
p401
F0.0
sS'max'
p402
F1.7976931348623157e+308
sS'collapsed'
p403
I00
sS'wrapping'
p404
I00
sS'immediate'
p405
I00
sS'label'
p406
g55
sS'singlestep'
p407
F1.0
sS'visible'
p408
I01
sS'inport'
p409
I00
sS'decimals'
p410
I2
sS'id'
p411
I4673934456
ssa(dp412
g41
S"<class 'gpi.widgets.DoubleSpinBox'>"
p413
sg43
S'Sloppy Sp. Per (0:off)'
p414
sg45
(dp415
S'outport'
p416
I00
sS'quietval'
p417
Nsg49
F0.0
sS'min'
p418
F0.0
sS'max'
p419
F1.7976931348623157e+308
sS'collapsed'
p420
I00
sS'wrapping'
p421
I00
sS'immediate'
p422
I00
sS'label'
p423
g55
sS'singlestep'
p424
F1.0
sS'visible'
p425
I01
sS'inport'
p426
I00
sS'decimals'
p427
I2
sS'id'
p428
I4673934608
ssa(dp429
g41
S"<class 'gpi.widgets.ExclusivePushButtons'>"
p430
sg43
S'gtype'
p431
sg45
(dp432
S'outport'
p433
I00
sS'quietval'
p434
Nsg49
I2
sS'collapsed'
p435
I00
sS'inport'
p436
I00
sS'visible'
p437
I01
sS'id'
p438
I4673966464
ssa(dp439
g41
S"<class 'gpi.widgets.ExclusivePushButtons'>"
p440
sg43
S'spinout'
p441
sg45
(dp442
S'outport'
p443
I00
sS'quietval'
p444
Nsg49
I0
sS'collapsed'
p445
I00
sS'inport'
p446
I00
sS'visible'
p447
I01
sS'id'
p448
I4673967680
ssasS'label'
p449
S''
p450
ssS'avgwalltime'
p451
S'0.17856836319'
p452
sg43
S'SpiralCoords'
p453
sS'pos'
p454
(lp455
F-53.0
aF-88.30000000000001
asS'ports'
p456
(lp457
(dp458
S'porttitle'
p459
S'params_in'
p460
sS'portnum'
p461
I0
sS'connections'
p462
(lp463
(dp464
S'dest'
p465
(dp466
S'portName'
p467
g460
sS'portID'
p468
I4673968440
sS'portNum'
p469
I0
sS'nodeID'
p470
I4673950232
ssS'src'
p471
(dp472
g467
S'out'
p473
sg468
I4673876656
sg469
I0
sg470
I4759189208
ssasS'widgetTitle'
p474
NsS'porttype'
p475
I65540
sS'obligation'
p476
I200
sS'id'
p477
I4673968440
sa(dp478
g459
S'arm_0'
p479
sg461
I1
sg462
(lp480
sg474
Nsg475
I65540
sg476
I200
sg477
I4673968744
sa(dp481
g459
S'crds_out'
p482
sg461
I0
sg462
(lp483
(dp484
g465
(dp485
g467
S'crds'
p486
sg468
I4673430344
sg469
I0
sg470
I4759016872
ssg471
(dp487
g467
g482
sg468
I4673968896
sg469
I0
sg470
I4673950232
ssa(dp488
g465
(dp489
g467
S'coords'
p490
sg468
I4674266384
sg469
I1
sg470
I4674104520
ssg471
(dp491
g467
g482
sg468
I4673968896
sg469
I0
sg470
I4673950232
ssasg474
Nsg475
I65541
sg476
Nsg477
I4673968896
sa(dp492
g459
S'grd_out'
p493
sg461
I1
sg462
(lp494
sg474
Nsg475
I65541
sg476
Nsg477
I4673969048
sasS'stdwalltime'
p495
S'0.00600742064462'
p496
sS'key'
p497
S'core.spiral.SpiralCoords'
p498
sg477
I4673950232
sS'walltime'
p499
S'0.181488990784'
p500
sa(dp501
g36
(dp502
g38
(lp503
(dp504
g41
S"<class '/opt/gpi/lib/core/math/GPI/FFT_NUMPY_GPI.FFTW_GROUP'>"
p505
sg43
S'Dimension[-1]'
p506
sg45
(dp507
S'outport'
p508
I00
sS'quietval'
p509
Nsg49
(dp510
S'length'
p511
I450
sS'in_len'
p512
I450
sg44
I01
ssS'collapsed'
p513
I00
sS'inport'
p514
I00
sS'visible'
p515
I01
sS'id'
p516
I4674034736
ssa(dp517
g41
S"<class '/opt/gpi/lib/core/math/GPI/FFT_NUMPY_GPI.FFTW_GROUP'>"
p518
sg43
S'Dimension[-2]'
p519
sg45
(dp520
S'outport'
p521
I00
sS'quietval'
p522
Nsg49
(dp523
g511
I450
sg512
I450
sg44
I01
ssS'collapsed'
p524
I00
sS'inport'
p525
I00
sS'visible'
p526
I01
sS'id'
p527
I4674021232
ssa(dp528
g41
S"<class '/opt/gpi/lib/core/math/GPI/FFT_NUMPY_GPI.FFTW_GROUP'>"
p529
sg43
S'Dimension[-3]'
p530
sg45
(dp531
S'outport'
p532
I00
sS'quietval'
p533
Nsg49
(dp534
g511
I20
sg512
I20
sg44
I00
ssS'collapsed'
p535
I00
sS'inport'
p536
I00
sS'visible'
p537
I00
sS'id'
p538
I4674023208
ssa(dp539
g41
S"<class '/opt/gpi/lib/core/math/GPI/FFT_NUMPY_GPI.FFTW_GROUP'>"
p540
sg43
S'Dimension[-4]'
p541
sg45
(dp542
S'outport'
p543
I00
sS'quietval'
p544
Nsg49
(dp545
g511
I1
sg512
I1
sg44
I00
ssS'collapsed'
p546
I00
sS'inport'
p547
I00
sS'visible'
p548
I00
sS'id'
p549
I4674025328
ssa(dp550
g41
S"<class '/opt/gpi/lib/core/math/GPI/FFT_NUMPY_GPI.FFTW_GROUP'>"
p551
sg43
S'Dimension[-5]'
p552
sg45
(dp553
S'outport'
p554
I00
sS'quietval'
p555
Nsg49
(dp556
g511
I1
sg512
I1
sg44
I00
ssS'collapsed'
p557
I00
sS'inport'
p558
I00
sS'visible'
p559
I00
sS'id'
p560
I4674027304
ssa(dp561
g41
S"<class '/opt/gpi/lib/core/math/GPI/FFT_NUMPY_GPI.FFTW_GROUP'>"
p562
sg43
S'Dimension[-6]'
p563
sg45
(dp564
S'outport'
p565
I00
sS'quietval'
p566
Nsg49
(dp567
g511
I1
sg512
I1
sg44
I00
ssS'collapsed'
p568
I00
sS'inport'
p569
I00
sS'visible'
p570
I00
sS'id'
p571
I4674041712
ssa(dp572
g41
S"<class '/opt/gpi/lib/core/math/GPI/FFT_NUMPY_GPI.FFTW_GROUP'>"
p573
sg43
S'Dimension[-7]'
p574
sg45
(dp575
S'outport'
p576
I00
sS'quietval'
p577
Nsg49
(dp578
g511
I1
sg512
I1
sg44
I00
ssS'collapsed'
p579
I00
sS'inport'
p580
I00
sS'visible'
p581
I00
sS'id'
p582
I4674043688
ssa(dp583
g41
S"<class '/opt/gpi/lib/core/math/GPI/FFT_NUMPY_GPI.FFTW_GROUP'>"
p584
sg43
S'Dimension[-8]'
p585
sg45
(dp586
S'outport'
p587
I00
sS'quietval'
p588
Nsg49
(dp589
g511
I1
sg512
I1
sg44
I00
ssS'collapsed'
p590
I00
sS'inport'
p591
I00
sS'visible'
p592
I00
sS'id'
p593
I4674049904
ssa(dp594
g41
S"<class '/opt/gpi/lib/core/math/GPI/FFT_NUMPY_GPI.FFTW_GROUP'>"
p595
sg43
S'Dimension[-9]'
p596
sg45
(dp597
S'outport'
p598
I00
sS'quietval'
p599
Nsg49
(dp600
g511
I1
sg512
I1
sg44
I00
ssS'collapsed'
p601
I00
sS'inport'
p602
I00
sS'visible'
p603
I00
sS'id'
p604
I4674051880
ssa(dp605
g41
S"<class 'gpi.widgets.PushButton'>"
p606
sg43
g44
sg45
(dp607
S'outport'
p608
I00
sS'quietval'
p609
Nsg49
I01
sS'collapsed'
p610
I00
sS'inport'
p611
I00
sS'visible'
p612
I01
sS'toggle'
p613
I01
sS'button_title'
p614
g55
sS'id'
p615
I4673976176
ssa(dp616
g41
S"<class 'gpi.widgets.PushButton'>"
p617
sg43
S'direction'
p618
sg45
(dp619
S'outport'
p620
I00
sS'quietval'
p621
Nsg49
I01
sS'collapsed'
p622
I00
sS'inport'
p623
I00
sS'visible'
p624
I01
sS'toggle'
p625
I01
sS'button_title'
p626
VINVERSE
p627
sS'id'
p628
I4673976936
ssasg449
g450
ssg451
S'0.186091512442'
p629
sg43
S'FFT_NUMPY'
p630
sg454
(lp631
F20.0
aF62.69999999999999
asg456
(lp632
(dp633
g459
S'in'
p634
sg461
I0
sg462
(lp635
(dp636
g465
(dp637
g467
g634
sg468
I4673977240
sg469
I0
sg470
I4674032760
ssg471
(dp638
g467
g473
sg468
I4674288992
sg469
I0
sg470
I4674104520
ssasg474
Nsg475
I65540
sg476
I100
sg477
I4673977240
sa(dp639
g459
g473
sg461
I0
sg462
(lp640
(dp641
g465
(dp642
g467
S'data'
p643
sg468
I4674304616
sg469
I0
sg470
I4674287472
ssg471
(dp644
g467
g473
sg468
I4673978152
sg469
I0
sg470
I4674032760
ssasg474
Nsg475
I65541
sg476
Nsg477
I4673978152
sasg495
S'0.0161121379528'
p645
sg497
S'core.math.FFT_NUMPY'
p646
sg477
I4674032760
sg499
S'0.165665149689'
p647
sa(dp648
g36
(dp649
g38
(lp650
(dp651
g41
S"<class 'gpi.widgets.Slider'>"
p652
sg43
S'Dims per Set'
p653
sg45
(dp654
S'outport'
p655
I00
sS'quietval'
p656
Nsg49
I2
sS'min'
p657
I1
sS'max'
p658
I2
sS'collapsed'
p659
I00
sS'inport'
p660
I00
sS'visible'
p661
I01
sS'id'
p662
I4674131976
ssa(dp663
g41
S"<class 'gpi.widgets.SpinBox'>"
p664
sg43
S'Eff MTX XY'
p665
sg45
(dp666
S'outport'
p667
I00
sS'quietval'
p668
Nsg49
I300
sS'min'
p669
I5
sS'max'
p670
I2147483647
sS'collapsed'
p671
I00
sS'wrapping'
p672
I00
sS'immediate'
p673
I00
sS'label'
p674
g55
sS'singlestep'
p675
I1
sS'visible'
p676
I01
sS'inport'
p677
I00
sS'id'
p678
I4674133344
ssa(dp679
g41
S"<class 'gpi.widgets.SpinBox'>"
p680
sg43
S'Eff MTX Z'
p681
sg45
(dp682
S'outport'
p683
I00
sS'quietval'
p684
Nsg49
I240
sS'min'
p685
I5
sS'max'
p686
I2147483647
sS'collapsed'
p687
I00
sS'wrapping'
p688
I00
sS'immediate'
p689
I00
sS'label'
p690
g55
sS'singlestep'
p691
I1
sS'visible'
p692
I00
sS'inport'
p693
I00
sS'id'
p694
I4674130000
ssa(dp695
g41
S"<class 'gpi.widgets.DoubleSpinBox'>"
p696
sg43
S'dx (pixels)'
p697
sg45
(dp698
S'outport'
p699
I00
sS'quietval'
p700
Nsg49
F0.0
sS'min'
p701
F-1.7976931348623157e+308
sS'max'
p702
F1.7976931348623157e+308
sS'collapsed'
p703
I00
sS'wrapping'
p704
I00
sS'immediate'
p705
I00
sS'label'
p706
g55
sS'singlestep'
p707
F1.0
sS'visible'
p708
I01
sS'inport'
p709
I00
sS'decimals'
p710
I2
sS'id'
p711
I4674267904
ssa(dp712
g41
S"<class 'gpi.widgets.DoubleSpinBox'>"
p713
sg43
S'dy (pixels)'
p714
sg45
(dp715
S'outport'
p716
I00
sS'quietval'
p717
Nsg49
F-10.0
sS'min'
p718
F-1.7976931348623157e+308
sS'max'
p719
F1.7976931348623157e+308
sS'collapsed'
p720
I00
sS'wrapping'
p721
I00
sS'immediate'
p722
I00
sS'label'
p723
g55
sS'singlestep'
p724
F1.0
sS'visible'
p725
I01
sS'inport'
p726
I00
sS'decimals'
p727
I2
sS'id'
p728
I4674267752
ssa(dp729
g41
S"<class 'gpi.widgets.DoubleSpinBox'>"
p730
sg43
S'dz (pixels)'
p731
sg45
(dp732
S'outport'
p733
I00
sS'quietval'
p734
Nsg49
F0.0
sS'min'
p735
F-1.7976931348623157e+308
sS'max'
p736
F1.7976931348623157e+308
sS'collapsed'
p737
I00
sS'wrapping'
p738
I00
sS'immediate'
p739
I00
sS'label'
p740
g55
sS'singlestep'
p741
F1.0
sS'visible'
p742
I01
sS'inport'
p743
I00
sS'decimals'
p744
I2
sS'id'
p745
I4674265168
ssasg449
g450
ssg451
S'0.163023978472'
p746
sg43
S'Grid'
p747
sg454
(lp748
F20.0
aF32.69999999999999
asg456
(lp749
(dp750
g459
g643
sg461
I0
sg462
(lp751
(dp752
g465
(dp753
g467
g643
sg468
I4674266080
sg469
I0
sg470
I4674104520
ssg471
(dp754
g467
g473
sg468
I4759135808
sg469
I0
sg470
I4673433080
ssasg474
Nsg475
I65540
sg476
I200
sg477
I4674266080
sa(dp755
g459
g490
sg461
I1
sg462
(lp756
(dp757
g465
(dp758
g467
g490
sg468
I4674266384
sg469
I1
sg470
I4674104520
ssg471
(dp759
g467
g482
sg468
I4673968896
sg469
I0
sg470
I4673950232
ssasg474
Nsg475
I65540
sg476
I100
sg477
I4674266384
sa(dp760
g459
S'weighting'
p761
sg461
I2
sg462
(lp762
(dp763
g465
(dp764
g467
g761
sg468
I4674266536
sg469
I2
sg470
I4674104520
ssg471
(dp765
g467
S'sdc'
p766
sg468
I4673430800
sg469
I0
sg470
I4759016872
ssasg474
Nsg475
I65540
sg476
I200
sg477
I4674266536
sa(dp767
g459
g460
sg461
I3
sg462
(lp768
sg474
Nsg475
I65540
sg476
I200
sg477
I4674289144
sa(dp769
g459
g473
sg461
I0
sg462
(lp770
(dp771
g465
(dp772
g467
g634
sg468
I4673977240
sg469
I0
sg470
I4674032760
ssg471
(dp773
g467
g473
sg468
I4674288992
sg469
I0
sg470
I4674104520
ssasg474
Nsg475
I65541
sg476
Nsg477
I4674288992
sasg495
S'0.00495079600544'
p774
sg497
S'core.gridding.Grid'
p775
sg477
I4674104520
sg499
S'0.150660991669'
p776
sa(dp777
g36
(dp778
g38
(lp779
(dp780
g41
S"<class 'gpi.widgets.TextBox'>"
p781
sg43
S'I/O Info:'
p782
sg45
(dp783
S'openExternalLinks'
p784
I00
sS'outport'
p785
I00
sS'quietval'
p786
Nsg49
S'input: (300, 300)\noutput: (300, 300)'
p787
sS'collapsed'
p788
I00
sS'inport'
p789
I00
sS'visible'
p790
I01
sS'wordwrap'
p791
I00
sS'id'
p792
I4673994232
ssa(dp793
g41
S"<class '/opt/gpi/lib/core/shapers/GPI/Reduce_GPI.ReduceSliders'>"
p794
sg43
S'Dimension[-1]'
p795
sg45
(dp796
S'outport'
p797
I00
sS'quietval'
p798
Nsg49
(dp799
S'width'
p800
I300
sS'ceiling'
p801
I300
sS'selection'
p802
I3
sS'center'
p803
I151
sS'floor'
p804
I1
ssS'min'
p805
I1
sS'max'
p806
I300
sS'collapsed'
p807
I00
sS'inport'
p808
I00
sS'visible'
p809
I01
sS'id'
p810
I4673917160
ssa(dp811
g41
S"<class '/opt/gpi/lib/core/shapers/GPI/Reduce_GPI.ReduceSliders'>"
p812
sg43
S'Dimension[-2]'
p813
sg45
(dp814
S'outport'
p815
I00
sS'quietval'
p816
Nsg49
(dp817
g800
I300
sg801
I300
sg802
I3
sg803
I151
sg804
I1
ssS'min'
p818
I1
sS'max'
p819
I300
sS'collapsed'
p820
I00
sS'inport'
p821
I00
sS'visible'
p822
I01
sS'id'
p823
I4673922016
ssa(dp824
g41
S"<class '/opt/gpi/lib/core/shapers/GPI/Reduce_GPI.ReduceSliders'>"
p825
sg43
S'Dimension[-3]'
p826
sg45
(dp827
S'outport'
p828
I00
sS'quietval'
p829
Nsg49
(dp830
g800
I1
sg801
I6
sg802
I2
sg803
I6
sg804
I6
ssS'min'
p831
I1
sS'max'
p832
I20
sS'collapsed'
p833
I00
sS'inport'
p834
I00
sS'visible'
p835
I00
sS'id'
p836
I4673931424
ssa(dp837
g41
S"<class '/opt/gpi/lib/core/shapers/GPI/Reduce_GPI.ReduceSliders'>"
p838
sg43
S'Dimension[-4]'
p839
sg45
(dp840
S'outport'
p841
I00
sS'quietval'
p842
Nsg49
(dp843
g800
I100
sg801
I100
sg802
I3
sg803
I51
sg804
I1
ssS'min'
p844
I1
sS'max'
p845
I100
sS'collapsed'
p846
I00
sS'inport'
p847
I00
sS'visible'
p848
I00
sS'id'
p849
I4673940224
ssa(dp850
g41
S"<class '/opt/gpi/lib/core/shapers/GPI/Reduce_GPI.ReduceSliders'>"
p851
sg43
S'Dimension[-5]'
p852
sg45
(dp853
S'outport'
p854
I00
sS'quietval'
p855
Nsg49
(dp856
g800
I100
sg801
I100
sg802
I3
sg803
I51
sg804
I1
ssS'min'
p857
I1
sS'max'
p858
I100
sS'collapsed'
p859
I00
sS'inport'
p860
I00
sS'visible'
p861
I00
sS'id'
p862
I4673949328
ssa(dp863
g41
S"<class '/opt/gpi/lib/core/shapers/GPI/Reduce_GPI.ReduceSliders'>"
p864
sg43
S'Dimension[-6]'
p865
sg45
(dp866
S'outport'
p867
I00
sS'quietval'
p868
Nsg49
(dp869
g800
I100
sg801
I100
sg802
I3
sg803
I51
sg804
I1
ssS'min'
p870
I1
sS'max'
p871
I100
sS'collapsed'
p872
I00
sS'inport'
p873
I00
sS'visible'
p874
I00
sS'id'
p875
I4673860272
ssa(dp876
g41
S"<class '/opt/gpi/lib/core/shapers/GPI/Reduce_GPI.ReduceSliders'>"
p877
sg43
S'Dimension[-7]'
p878
sg45
(dp879
S'outport'
p880
I00
sS'quietval'
p881
Nsg49
(dp882
g800
I100
sg801
I100
sg802
I3
sg803
I51
sg804
I1
ssS'min'
p883
I1
sS'max'
p884
I100
sS'collapsed'
p885
I00
sS'inport'
p886
I00
sS'visible'
p887
I00
sS'id'
p888
I4673873472
ssa(dp889
g41
S"<class '/opt/gpi/lib/core/shapers/GPI/Reduce_GPI.ReduceSliders'>"
p890
sg43
S'Dimension[-8]'
p891
sg45
(dp892
S'outport'
p893
I00
sS'quietval'
p894
Nsg49
(dp895
g800
I100
sg801
I100
sg802
I3
sg803
I51
sg804
I1
ssS'min'
p896
I1
sS'max'
p897
I100
sS'collapsed'
p898
I00
sS'inport'
p899
I00
sS'visible'
p900
I00
sS'id'
p901
I4673890768
ssa(dp902
g41
S"<class '/opt/gpi/lib/core/shapers/GPI/Reduce_GPI.ReduceSliders'>"
p903
sg43
S'Dimension[-9]'
p904
sg45
(dp905
S'outport'
p906
I00
sS'quietval'
p907
Nsg49
(dp908
g800
I100
sg801
I100
sg802
I3
sg803
I51
sg804
I1
ssS'min'
p909
I1
sS'max'
p910
I100
sS'collapsed'
p911
I00
sS'inport'
p912
I00
sS'visible'
p913
I00
sS'id'
p914
I4673846624
ssa(dp915
g41
S"<class '/opt/gpi/lib/core/shapers/GPI/Reduce_GPI.ReduceSliders'>"
p916
sg43
S'Dimension[-10]'
p917
sg45
(dp918
S'outport'
p919
I00
sS'quietval'
p920
Nsg49
(dp921
g800
I100
sg801
I100
sg802
I3
sg803
I51
sg804
I1
ssS'min'
p922
I1
sS'max'
p923
I100
sS'collapsed'
p924
I00
sS'inport'
p925
I00
sS'visible'
p926
I00
sS'id'
p927
I4674093440
ssa(dp928
g41
S"<class 'gpi.widgets.PushButton'>"
p929
sg43
S'Mask'
p930
sg45
(dp931
S'outport'
p932
I00
sS'quietval'
p933
Nsg49
I00
sS'collapsed'
p934
I00
sS'inport'
p935
I00
sS'visible'
p936
I01
sS'toggle'
p937
I01
sS'button_title'
p938
g55
sS'id'
p939
I4674069776
ssa(dp940
g41
S"<class 'gpi.widgets.PushButton'>"
p941
sg43
S'Compute'
p942
sg45
(dp943
S'outport'
p944
I00
sS'quietval'
p945
Nsg49
I01
sS'collapsed'
p946
I00
sS'inport'
p947
I00
sS'visible'
p948
I01
sS'toggle'
p949
I01
sS'button_title'
p950
g55
sS'id'
p951
I4674070536
ssasg449
g450
ssg451
S'0.167752742767'
p952
sg43
S'Reduce'
p953
sg454
(lp954
F20.0
aF121.69999999999999
asg456
(lp955
(dp956
g459
g634
sg461
I0
sg462
(lp957
(dp958
g465
(dp959
g467
g634
sg468
I4674071296
sg469
I0
sg470
I4674032304
ssg471
(dp960
g467
g473
sg468
I4674304768
sg469
I0
sg470
I4674287472
ssasg474
Nsg475
I65540
sg476
I100
sg477
I4674071296
sa(dp961
g459
g473
sg461
I0
sg462
(lp962
(dp963
g465
(dp964
g467
g634
sg468
I4759202104
sg469
I0
sg470
I4673432776
ssg471
(dp965
g467
g473
sg468
I4674071448
sg469
I0
sg470
I4674032304
ssasg474
Nsg475
I65541
sg476
Nsg477
I4674071448
sa(dp966
g459
S'mask'
p967
sg461
I1
sg462
(lp968
sg474
Nsg475
I65541
sg476
Nsg477
I4674071600
sasg495
S'0.00643474590488'
p969
sg497
S'core.shapers.Reduce'
p970
sg477
I4674032304
sg499
S'0.163884162903'
p971
sa(dp972
g36
(dp973
g38
(lp974
(dp975
g41
S"<class 'gpi.widgets.ExclusivePushButtons'>"
p976
sg43
S'Complex Display'
p977
sg45
(dp978
S'outport'
p979
I00
sS'quietval'
p980
Nsg49
I4
sS'collapsed'
p981
I00
sS'inport'
p982
I00
sS'visible'
p983
I01
sS'id'
p984
I4759143544
ssa(dp985
g41
S"<class 'gpi.widgets.ExclusivePushButtons'>"
p986
sg43
S'Color Map'
p987
sg45
(dp988
S'outport'
p989
I00
sS'quietval'
p990
Nsg49
I0
sS'collapsed'
p991
I01
sS'inport'
p992
I00
sS'visible'
p993
I00
sS'id'
p994
I4759145216
ssa(dp995
g41
S"<class 'gpi.widgets.SpinBox'>"
p996
sg43
S'Edge Pixels'
p997
sg45
(dp998
S'outport'
p999
I00
sS'quietval'
p1000
Nsg49
I0
sS'min'
p1001
I0
sS'max'
p1002
I2147483647
sS'collapsed'
p1003
I00
sS'wrapping'
p1004
I00
sS'immediate'
p1005
I00
sS'label'
p1006
g55
sS'singlestep'
p1007
I1
sS'visible'
p1008
I01
sS'inport'
p1009
I00
sS'id'
p1010
I4759154768
ssa(dp1011
g41
S"<class 'gpi.widgets.SpinBox'>"
p1012
sg43
S'Black Pixels'
p1013
sg45
(dp1014
S'outport'
p1015
I00
sS'quietval'
p1016
Nsg49
I0
sS'min'
p1017
I0
sS'max'
p1018
I2147483647
sS'collapsed'
p1019
I00
sS'wrapping'
p1020
I00
sS'immediate'
p1021
I00
sS'label'
p1022
g55
sS'singlestep'
p1023
I1
sS'visible'
p1024
I01
sS'inport'
p1025
I00
sS'id'
p1026
I4759155680
ssa(dp1027
g41
S"<class 'gpi.widgets.DisplayBox'>"
p1028
sg43
S'Viewport:'
p1029
sg45
(dp1030
S'outport'
p1031
I00
sS'scale'
p1032
F2.0
sS'quietval'
p1033
Nsg49
NsS'collapsed'
p1034
I01
sS'interp'
p1035
I01
sS'inport'
p1036
I00
sS'visible'
p1037
I01
sS'noscroll'
p1038
I01
sS'points'
p1039
NsS'line'
p1040
NsS'id'
p1041
I4759156592
ssa(dp1042
g41
S"<class '/opt/gpi/lib/core/display/GPI/ImageDisplay_GPI.WindowLevel'>"
p1043
sg43
S'L W F C:'
p1044
sg45
(dp1045
S'outport'
p1046
I00
sS'quietval'
p1047
Nsg49
(dp1048
S'window'
p1049
I100
sg804
I0
sg801
I100
sS'level'
p1050
I50
ssS'min'
p1051
I0
sS'max'
p1052
I100
sS'collapsed'
p1053
I01
sS'inport'
p1054
I00
sS'visible'
p1055
I01
sS'id'
p1056
I4759171456
ssa(dp1057
g41
S"<class 'gpi.widgets.ExclusivePushButtons'>"
p1058
sg43
S'Scalar Display'
p1059
sg45
(dp1060
S'outport'
p1061
I00
sS'quietval'
p1062
Nsg49
I0
sS'collapsed'
p1063
I00
sS'inport'
p1064
I00
sS'visible'
p1065
I00
sS'id'
p1066
I4759192696
ssa(dp1067
g41
S"<class 'gpi.widgets.DoubleSpinBox'>"
p1068
sg43
S'Gamma'
p1069
sg45
(dp1070
S'outport'
p1071
I00
sS'quietval'
p1072
Nsg49
F1.5
sS'min'
p1073
F0.1
sS'max'
p1074
F10.0
sS'collapsed'
p1075
I00
sS'wrapping'
p1076
I00
sS'immediate'
p1077
I00
sS'label'
p1078
g55
sS'singlestep'
p1079
F0.05
sS'visible'
p1080
I01
sS'inport'
p1081
I00
sS'decimals'
p1082
I3
sS'id'
p1083
I4759193456
ssa(dp1084
g41
S"<class 'gpi.widgets.ExclusivePushButtons'>"
p1085
sg43
S'Zero Ref'
p1086
sg45
(dp1087
S'outport'
p1088
I00
sS'quietval'
p1089
Nsg49
I0
sS'collapsed'
p1090
I00
sS'inport'
p1091
I00
sS'visible'
p1092
I00
sS'id'
p1093
I4759194368
ssa(dp1094
g41
S"<class 'gpi.widgets.PushButton'>"
p1095
sg43
S'Fix Range'
p1096
sg45
(dp1097
S'outport'
p1098
I00
sS'quietval'
p1099
Nsg49
I00
sS'collapsed'
p1100
I00
sS'inport'
p1101
I00
sS'visible'
p1102
I01
sS'toggle'
p1103
I01
sS'button_title'
p1104
VAuto-Range On
p1105
sS'id'
p1106
I4759195280
ssa(dp1107
g41
S"<class 'gpi.widgets.DoubleSpinBox'>"
p1108
sg43
S'Range Min'
p1109
sg45
(dp1110
S'outport'
p1111
I00
sS'quietval'
p1112
Nsg49
F0.0
sS'min'
p1113
F-1.7976931348623157e+308
sS'max'
p1114
F1.7976931348623157e+308
sS'collapsed'
p1115
I00
sS'wrapping'
p1116
I00
sS'immediate'
p1117
I00
sS'label'
p1118
g55
sS'singlestep'
p1119
F1.0
sS'visible'
p1120
I00
sS'inport'
p1121
I00
sS'decimals'
p1122
I2
sS'id'
p1123
I4759200280
ssa(dp1124
g41
S"<class 'gpi.widgets.DoubleSpinBox'>"
p1125
sg43
S'Range Max'
p1126
sg45
(dp1127
S'outport'
p1128
I00
sS'quietval'
p1129
Nsg49
F0.01
sS'min'
p1130
F-1.7976931348623157e+308
sS'max'
p1131
F1.7976931348623157e+308
sS'collapsed'
p1132
I00
sS'wrapping'
p1133
I00
sS'immediate'
p1134
I00
sS'label'
p1135
g55
sS'singlestep'
p1136
F1.0
sS'visible'
p1137
I01
sS'inport'
p1138
I00
sS'decimals'
p1139
I2
sS'id'
p1140
I4759201192
ssasg449
g450
ssg451
S'0.0234386026859'
p1141
sg43
S'ImageDisplay'
p1142
sg454
(lp1143
F20.0
aF151.7
asg456
(lp1144
(dp1145
g459
g634
sg461
I0
sg462
(lp1146
(dp1147
g465
(dp1148
g467
g634
sg468
I4759202104
sg469
I0
sg470
I4673432776
ssg471
(dp1149
g467
g473
sg468
I4674071448
sg469
I0
sg470
I4674032304
ssasg474
Nsg475
I65540
sg476
I100
sg477
I4759202104
sa(dp1150
g459
g473
sg461
I0
sg462
(lp1151
sg474
Nsg475
I65541
sg476
Nsg477
I4759202256
sasg495
S'0.00186489218001'
p1152
sg497
S'core.display.ImageDisplay'
p1153
sg477
I4673432776
sg499
S'0.0213580131531'
p1154
sa(dp1155
g36
(dp1156
g38
(lp1157
(dp1158
g41
S"<class 'gpi.widgets.TextBox'>"
p1159
sg43
S'I/O Info:'
p1160
sg45
(dp1161
S'openExternalLinks'
p1162
I00
sS'outport'
p1163
I00
sS'quietval'
p1164
Nsg49
S"created: 07/11/2014\naccessed: 07/11/2014\nmodified: 07/11/2014\nUID: 501\nGID: 20\nfile size (bytes): 2030\ntype: <type 'dict'>\n"
p1165
sS'collapsed'
p1166
I00
sS'inport'
p1167
I00
sS'visible'
p1168
I01
sS'wordwrap'
p1169
I00
sS'id'
p1170
I4673877720
ssa(dp1171
g41
S"<class 'gpi.widgets.OpenFileBrowser'>"
p1172
sg43
S'File Browser'
p1173
sg45
(dp1174
S'outport'
p1175
I00
sS'quietval'
p1176
Nsg49
S'/opt/gpi/doc/Examples/spiral_T1.pickle'
p1177
sS'collapsed'
p1178
I00
sS'inport'
p1179
I00
sS'visible'
p1180
I01
sS'id'
p1181
I4673877112
ssasg449
S'Meta Data'
p1182
ssg451
S'0.135905981064'
p1183
sg43
S'ReadPickled'
p1184
sg454
(lp1185
F-30.0
aF-128.3
asg456
(lp1186
(dp1187
g459
g473
sg461
I0
sg462
(lp1188
(dp1189
g465
(dp1190
g467
g460
sg468
I4673968440
sg469
I0
sg470
I4673950232
ssg471
(dp1191
g467
g473
sg468
I4673876656
sg469
I0
sg470
I4759189208
ssasg474
Nsg475
I65541
sg476
Nsg477
I4673876656
sasg495
S'0.0123612645256'
p1192
sg497
S'core.fileIO.ReadPickled'
p1193
sg477
I4759189208
sg499
S'0.150856971741'
p1194
sa(dp1195
g36
(dp1196
g38
(lp1197
(dp1198
g41
S"<class 'gpi.widgets.Slider'>"
p1199
sg43
S'Num Rolloff Dims'
p1200
sg45
(dp1201
S'outport'
p1202
I00
sS'quietval'
p1203
Nsg49
I2
sS'min'
p1204
I1
sS'max'
p1205
I3
sS'collapsed'
p1206
I00
sS'inport'
p1207
I00
sS'visible'
p1208
I01
sS'id'
p1209
I4674302640
ssa(dp1210
g41
S"<class 'gpi.widgets.PushButton'>"
p1211
sg43
S'Isotropic FOV'
p1212
sg45
(dp1213
S'outport'
p1214
I00
sS'quietval'
p1215
Nsg49
I01
sS'collapsed'
p1216
I00
sS'inport'
p1217
I00
sS'visible'
p1218
I01
sS'toggle'
p1219
I01
sS'button_title'
p1220
g55
sS'id'
p1221
I4674303856
ssasg449
g450
ssg451
S'0.1671679914'
p1222
sg43
S'Rolloff'
p1223
sg454
(lp1224
F20.0
aF92.69999999999999
asg456
(lp1225
(dp1226
g459
g643
sg461
I0
sg462
(lp1227
(dp1228
g465
(dp1229
g467
g643
sg468
I4674304616
sg469
I0
sg470
I4674287472
ssg471
(dp1230
g467
g473
sg468
I4673978152
sg469
I0
sg470
I4674032760
ssasg474
Nsg475
I65540
sg476
I100
sg477
I4674304616
sa(dp1231
g459
g473
sg461
I0
sg462
(lp1232
(dp1233
g465
(dp1234
g467
g634
sg468
I4674071296
sg469
I0
sg470
I4674032304
ssg471
(dp1235
g467
g473
sg468
I4674304768
sg469
I0
sg470
I4674287472
ssasg474
Nsg475
I65541
sg476
Nsg477
I4674304768
sasg495
S'0.00983975062499'
p1236
sg497
S'core.gridding.Rolloff'
p1237
sg477
I4674287472
sg499
S'0.183600902557'
p1238
sa(dp1239
g36
(dp1240
g38
(lp1241
(dp1242
g41
S"<class 'gpi.widgets.TextBox'>"
p1243
sg43
S'I/O Info:'
p1244
sg45
(dp1245
S'openExternalLinks'
p1246
I00
sS'outport'
p1247
I00
sS'quietval'
p1248
Nsg49
S'created: 07/11/2014\naccessed: 07/11/2014\nmodified: 07/11/2014\nUID: 501\nGID: 20\nfile size (bytes): 2607080\ndimensions: [5, 79, 825]\ntype: complex64\n'
p1249
sS'collapsed'
p1250
I00
sS'inport'
p1251
I00
sS'visible'
p1252
I01
sS'wordwrap'
p1253
I00
sS'id'
p1254
I4674264416
ssa(dp1255
g41
S"<class 'gpi.widgets.OpenFileBrowser'>"
p1256
sg43
S'File Browser'
p1257
sg45
(dp1258
S'outport'
p1259
I00
sS'quietval'
p1260
Nsg49
S'/opt/gpi/doc/Examples/spiral_T1.npy'
p1261
sS'collapsed'
p1262
I00
sS'inport'
p1263
I00
sS'visible'
p1264
I01
sS'id'
p1265
I4674264872
ssa(dp1266
g41
S"<class 'gpi.widgets.PushButton'>"
p1267
sg43
S'Squeeze'
p1268
sg45
(dp1269
S'outport'
p1270
I00
sS'quietval'
p1271
Nsg49
I00
sS'collapsed'
p1272
I00
sS'inport'
p1273
I00
sS'visible'
p1274
I01
sS'toggle'
p1275
I01
sS'button_title'
p1276
g55
sS'id'
p1277
I4674101784
ssasg449
S'Raw Data'
p1278
ssg451
S'0.0551027456919'
p1279
sg43
S'ReadNPY'
p1280
sg454
(lp1281
F-23.0
aF-158.3
asg456
(lp1282
(dp1283
g459
g473
sg461
I0
sg462
(lp1284
(dp1285
g465
(dp1286
g467
g634
sg468
I4759135504
sg469
I0
sg470
I4673433080
ssg471
(dp1287
g467
g473
sg468
I4674102544
sg469
I0
sg470
I4674032000
ssasg474
Nsg475
I65541
sg476
Nsg477
I4674102544
sasg495
S'0.0102275333206'
p1288
sg497
S'core.fileIO.ReadNPY'
p1289
sg477
I4674032000
sg499
S'0.0419311523438'
p1290
sa(dp1291
g36
(dp1292
g38
(lp1293
(dp1294
g41
S"<class 'gpi.widgets.PushButton'>"
p1295
sg43
S'computenow'
p1296
sg45
(dp1297
S'outport'
p1298
I00
sS'quietval'
p1299
Nsg49
I01
sS'collapsed'
p1300
I00
sS'inport'
p1301
I00
sS'visible'
p1302
I01
sS'toggle'
p1303
I01
sS'button_title'
p1304
g55
sS'id'
p1305
I4702329904
ssa(dp1306
g41
S"<class 'gpi.widgets.Slider'>"
p1307
sg43
S'Dims per Set'
p1308
sg45
(dp1309
S'outport'
p1310
I00
sS'quietval'
p1311
Nsg49
I2
sS'min'
p1312
I1
sS'max'
p1313
I2
sS'collapsed'
p1314
I00
sS'inport'
p1315
I00
sS'visible'
p1316
I01
sS'id'
p1317
I4674307800
ssa(dp1318
g41
S"<class 'gpi.widgets.SpinBox'>"
p1319
sg43
S'Iterations'
p1320
sg45
(dp1321
S'outport'
p1322
I00
sS'quietval'
p1323
Nsg49
I15
sS'min'
p1324
I1
sS'max'
p1325
I2147483647
sS'collapsed'
p1326
I00
sS'wrapping'
p1327
I00
sS'immediate'
p1328
I00
sS'label'
p1329
g55
sS'singlestep'
p1330
I1
sS'visible'
p1331
I01
sS'inport'
p1332
I00
sS'id'
p1333
I4674306736
ssa(dp1334
g41
S"<class 'gpi.widgets.DoubleSpinBox'>"
p1335
sg43
S'Effective MTX XY'
p1336
sg45
(dp1337
S'outport'
p1338
I00
sS'quietval'
p1339
Nsg49
F300.0
sS'min'
p1340
F2.0
sS'max'
p1341
F1.7976931348623157e+308
sS'collapsed'
p1342
I00
sS'wrapping'
p1343
I00
sS'immediate'
p1344
I00
sS'label'
p1345
g55
sS'singlestep'
p1346
F1.0
sS'visible'
p1347
I01
sS'inport'
p1348
I00
sS'decimals'
p1349
I2
sS'id'
p1350
I4759259144
ssa(dp1351
g41
S"<class 'gpi.widgets.DoubleSpinBox'>"
p1352
sg43
S'Effective MTX Z'
p1353
sg45
(dp1354
S'outport'
p1355
I00
sS'quietval'
p1356
Nsg49
F300.0
sS'min'
p1357
F2.0
sS'max'
p1358
F1.7976931348623157e+308
sS'collapsed'
p1359
I00
sS'wrapping'
p1360
I00
sS'immediate'
p1361
I00
sS'label'
p1362
g55
sS'singlestep'
p1363
F1.0
sS'visible'
p1364
I00
sS'inport'
p1365
I00
sS'decimals'
p1366
I2
sS'id'
p1367
I4759260056
ssa(dp1368
g41
S"<class 'gpi.widgets.DoubleSpinBox'>"
p1369
sg43
S'Taper'
p1370
sg45
(dp1371
S'outport'
p1372
I00
sS'quietval'
p1373
Nsg49
F0.1
sS'min'
p1374
F0.0
sS'max'
p1375
F1.0
sS'collapsed'
p1376
I00
sS'wrapping'
p1377
I00
sS'immediate'
p1378
I00
sS'label'
p1379
g55
sS'singlestep'
p1380
F0.01
sS'visible'
p1381
I01
sS'inport'
p1382
I00
sS'decimals'
p1383
I2
sS'id'
p1384
I4759260968
ssasg449
g450
ssg451
S'0.520477056503'
p1385
sg43
S'SDC'
p1386
sg454
(lp1387
F-68.0
aF-20.30000000000001
asg456
(lp1388
(dp1389
g459
g486
sg461
I0
sg462
(lp1390
(dp1391
g465
(dp1392
g467
g486
sg468
I4673430344
sg469
I0
sg470
I4759016872
ssg471
(dp1393
g467
g482
sg468
I4673968896
sg469
I0
sg470
I4673950232
ssasg474
Nsg475
I65540
sg476
I100
sg477
I4673430344
sa(dp1394
g459
S'wates'
p1395
sg461
I1
sg462
(lp1396
sg474
Nsg475
I65540
sg476
I200
sg477
I4673430496
sa(dp1397
g459
g460
sg461
I2
sg462
(lp1398
sg474
Nsg475
I65540
sg476
I200
sg477
I4673430648
sa(dp1399
g459
g766
sg461
I0
sg462
(lp1400
(dp1401
g465
(dp1402
g467
g761
sg468
I4674266536
sg469
I2
sg470
I4674104520
ssg471
(dp1403
g467
g766
sg468
I4673430800
sg469
I0
sg470
I4759016872
ssasg474
Nsg475
I65541
sg476
Nsg477
I4673430800
sasg495
S'0.0103720414349'
p1404
sg497
S'core.gridding.SDC'
p1405
sg477
I4759016872
sg499
S'0.512881040573'
p1406
sa(dp1407
g36
(dp1408
g38
(lp1409
(dp1410
g41
S"<class 'gpi.widgets.TextBox'>"
p1411
sg43
S'I/O Info:'
p1412
sg45
(dp1413
S'openExternalLinks'
p1414
I00
sS'outport'
p1415
I00
sS'quietval'
p1416
Nsg49
S'input: (5, 79, 825)\noutput: (79, 825)'
p1417
sS'collapsed'
p1418
I00
sS'inport'
p1419
I00
sS'visible'
p1420
I01
sS'wordwrap'
p1421
I00
sS'id'
p1422
I4673402888
ssa(dp1423
g41
S"<class '/opt/gpi/lib/core/shapers/GPI/Reduce_GPI.ReduceSliders'>"
p1424
sg43
S'Dimension[-1]'
p1425
sg45
(dp1426
S'outport'
p1427
I00
sS'quietval'
p1428
Nsg49
(dp1429
g800
I825
sg801
I825
sg802
I3
sg803
I413
sg804
I1
ssS'min'
p1430
I1
sS'max'
p1431
I825
sS'collapsed'
p1432
I00
sS'inport'
p1433
I00
sS'visible'
p1434
I01
sS'id'
p1435
I4673403344
ssa(dp1436
g41
S"<class '/opt/gpi/lib/core/shapers/GPI/Reduce_GPI.ReduceSliders'>"
p1437
sg43
S'Dimension[-2]'
p1438
sg45
(dp1439
S'outport'
p1440
I00
sS'quietval'
p1441
Nsg49
(dp1442
g800
I79
sg801
I79
sg802
I3
sg803
I40
sg804
I1
ssS'min'
p1443
I1
sS'max'
p1444
I79
sS'collapsed'
p1445
I00
sS'inport'
p1446
I00
sS'visible'
p1447
I01
sS'id'
p1448
I4673605112
ssa(dp1449
g41
S"<class '/opt/gpi/lib/core/shapers/GPI/Reduce_GPI.ReduceSliders'>"
p1450
sg43
S'Dimension[-3]'
p1451
sg45
(dp1452
S'outport'
p1453
I00
sS'quietval'
p1454
Nsg49
(dp1455
g800
I1
sg801
I5
sg802
I2
sg803
I5
sg804
I5
ssS'min'
p1456
I1
sS'max'
p1457
I5
sS'collapsed'
p1458
I00
sS'inport'
p1459
I00
sS'visible'
p1460
I01
sS'id'
p1461
I4759089536
ssa(dp1462
g41
S"<class '/opt/gpi/lib/core/shapers/GPI/Reduce_GPI.ReduceSliders'>"
p1463
sg43
S'Dimension[-4]'
p1464
sg45
(dp1465
S'outport'
p1466
I00
sS'quietval'
p1467
Nsg49
(dp1468
g800
I1
sg801
I1
sg802
I2
sg803
I1
sg804
I1
ssS'min'
p1469
I1
sS'max'
p1470
I2
sS'collapsed'
p1471
I00
sS'inport'
p1472
I00
sS'visible'
p1473
I00
sS'id'
p1474
I4759086048
ssa(dp1475
g41
S"<class '/opt/gpi/lib/core/shapers/GPI/Reduce_GPI.ReduceSliders'>"
p1476
sg43
S'Dimension[-5]'
p1477
sg45
(dp1478
S'outport'
p1479
I00
sS'quietval'
p1480
Nsg49
(dp1481
g800
I1
sg801
I1
sg802
I2
sg803
I1
sg804
I1
ssS'min'
p1482
I1
sS'max'
p1483
I2
sS'collapsed'
p1484
I00
sS'inport'
p1485
I00
sS'visible'
p1486
I00
sS'id'
p1487
I4759154168
ssa(dp1488
g41
S"<class '/opt/gpi/lib/core/shapers/GPI/Reduce_GPI.ReduceSliders'>"
p1489
sg43
S'Dimension[-6]'
p1490
sg45
(dp1491
S'outport'
p1492
I00
sS'quietval'
p1493
Nsg49
(dp1494
g800
I100
sg801
I100
sg802
I3
sg803
I51
sg804
I1
ssS'min'
p1495
I1
sS'max'
p1496
I100
sS'collapsed'
p1497
I00
sS'inport'
p1498
I00
sS'visible'
p1499
I00
sS'id'
p1500
I4759095760
ssa(dp1501
g41
S"<class '/opt/gpi/lib/core/shapers/GPI/Reduce_GPI.ReduceSliders'>"
p1502
sg43
S'Dimension[-7]'
p1503
sg45
(dp1504
S'outport'
p1505
I00
sS'quietval'
p1506
Nsg49
(dp1507
g800
I100
sg801
I100
sg802
I3
sg803
I51
sg804
I1
ssS'min'
p1508
I1
sS'max'
p1509
I100
sS'collapsed'
p1510
I00
sS'inport'
p1511
I00
sS'visible'
p1512
I00
sS'id'
p1513
I4759101520
ssa(dp1514
g41
S"<class '/opt/gpi/lib/core/shapers/GPI/Reduce_GPI.ReduceSliders'>"
p1515
sg43
S'Dimension[-8]'
p1516
sg45
(dp1517
S'outport'
p1518
I00
sS'quietval'
p1519
Nsg49
(dp1520
g800
I100
sg801
I100
sg802
I3
sg803
I51
sg804
I1
ssS'min'
p1521
I1
sS'max'
p1522
I100
sS'collapsed'
p1523
I00
sS'inport'
p1524
I00
sS'visible'
p1525
I00
sS'id'
p1526
I4759105920
ssa(dp1527
g41
S"<class '/opt/gpi/lib/core/shapers/GPI/Reduce_GPI.ReduceSliders'>"
p1528
sg43
S'Dimension[-9]'
p1529
sg45
(dp1530
S'outport'
p1531
I00
sS'quietval'
p1532
Nsg49
(dp1533
g800
I100
sg801
I100
sg802
I3
sg803
I51
sg804
I1
ssS'min'
p1534
I1
sS'max'
p1535
I100
sS'collapsed'
p1536
I00
sS'inport'
p1537
I00
sS'visible'
p1538
I00
sS'id'
p1539
I4759110928
ssa(dp1540
g41
S"<class '/opt/gpi/lib/core/shapers/GPI/Reduce_GPI.ReduceSliders'>"
p1541
sg43
S'Dimension[-10]'
p1542
sg45
(dp1543
S'outport'
p1544
I00
sS'quietval'
p1545
Nsg49
(dp1546
g800
I100
sg801
I100
sg802
I3
sg803
I51
sg804
I1
ssS'min'
p1547
I1
sS'max'
p1548
I100
sS'collapsed'
p1549
I00
sS'inport'
p1550
I00
sS'visible'
p1551
I00
sS'id'
p1552
I4759115936
ssa(dp1553
g41
S"<class 'gpi.widgets.PushButton'>"
p1554
sg43
g930
sg45
(dp1555
S'outport'
p1556
I00
sS'quietval'
p1557
Nsg49
I00
sS'collapsed'
p1558
I00
sS'inport'
p1559
I00
sS'visible'
p1560
I01
sS'toggle'
p1561
I01
sS'button_title'
p1562
g55
sS'id'
p1563
I4759125040
ssa(dp1564
g41
S"<class 'gpi.widgets.PushButton'>"
p1565
sg43
g942
sg45
(dp1566
S'outport'
p1567
I00
sS'quietval'
p1568
Nsg49
I01
sS'collapsed'
p1569
I00
sS'inport'
p1570
I00
sS'visible'
p1571
I01
sS'toggle'
p1572
I01
sS'button_title'
p1573
g55
sS'id'
p1574
I4759134896
ssasg449
g450
ssg451
S'0.153738703047'
p1575
sg43
g953
sg454
(lp1576
F74.0
aF-66.30000000000001
asg456
(lp1577
(dp1578
g459
g634
sg461
I0
sg462
(lp1579
(dp1580
g465
(dp1581
g467
g634
sg468
I4759135504
sg469
I0
sg470
I4673433080
ssg471
(dp1582
g467
g473
sg468
I4674102544
sg469
I0
sg470
I4674032000
ssasg474
Nsg475
I65540
sg476
I100
sg477
I4759135504
sa(dp1583
g459
g473
sg461
I0
sg462
(lp1584
(dp1585
g465
(dp1586
g467
g643
sg468
I4674266080
sg469
I0
sg470
I4674104520
ssg471
(dp1587
g467
g473
sg468
I4759135808
sg469
I0
sg470
I4673433080
ssasg474
Nsg475
I65541
sg476
Nsg477
I4759135808
sa(dp1588
g459
g967
sg461
I1
sg462
(lp1589
sg474
Nsg475
I65541
sg476
Nsg477
I4759135656
sasg495
S'0.0102440954454'
p1590
sg497
g970
sg477
I4673433080
sg499
S'0.151699781418'
p1591
sassS'WALLTIME'
p1592
S'1.69989109039'
p1593
s.