(dp0
S'HEADER'
p1
S'This is a GPI Network File'
p2
sS'GPI_VERSION'
p3
S'0.2.0-n1'
p4
sS'PLATFORM'
p5
(dp6
S'OSX'
p7
S'10.10'
p8
sS'PYTHON_VERSION'
p9
S'2.7.6'
p10
sS'PYTHON'
p11
S'CPython'
p12
sS'TOTAL_PHYMEM'
p13
L17179869184L
sS'NUM_CPUS'
p14
I8
sS'HOSTNAME'
p15
S'tron.local'
p16
sg5
S'Darwin-14.0.0-x86_64-i386-64bit'
p17
sS'TOTAL_PHYMEM_STR'
p18
S'16.00 GB'
p19
sS'OS'
p20
S'Darwin'
p21
ssS'DATETIME'
p22
S'Fri Nov  7 12:33:39 2014'
p23
sS'NETWORK_VERSION'
p24
S'2'
p25
sS'layouts'
p26
(lp27
sS'TOTAL_PMEM'
p28
S'96'
p29
sS'nodes'
p30
(dp31
S'macroNodes'
p32
(lp33
sg30
(lp34
(dp35
S'widget_settings'
p36
(dp37
S'parms'
p38
(lp39
(dp40
S'type'
p41
S"<class 'gpi.widgets.SaveFileBrowser'>"
p42
sS'name'
p43
S'File Browser'
p44
sS'kwargs'
p45
(dp46
S'outport'
p47
I00
sS'quietval'
p48
NsS'val'
p49
S''
p50
sS'collapsed'
p51
I00
sS'inport'
p52
I00
sS'visible'
p53
I01
sS'id'
p54
I4690203160
ssa(dp55
g41
S"<class 'gpi.widgets.PushButton'>"
p56
sg43
S'Write Mode'
p57
sg45
(dp58
S'outport'
p59
I00
sS'quietval'
p60
Nsg49
I00
sS'collapsed'
p61
I00
sS'inport'
p62
I00
sS'visible'
p63
I01
sS'toggle'
p64
I01
sS'button_title'
p65
VWrite on New Filename
p66
sS'id'
p67
I4690203768
ssa(dp68
g41
S"<class 'gpi.widgets.PushButton'>"
p69
sg43
S'Write Now'
p70
sg45
(dp71
S'outport'
p72
I00
sS'quietval'
p73
Nsg49
I00
sS'collapsed'
p74
I00
sS'inport'
p75
I00
sS'visible'
p76
I01
sS'toggle'
p77
I00
sS'button_title'
p78
VWrite Right Now
p79
sS'id'
p80
I4690204528
ssasS'label'
p81
g50
ssS'avgwalltime'
p82
S'None'
p83
sg43
S'WritePickled'
p84
sS'pos'
p85
(lp86
F-45.0
aF-30.0
asS'ports'
p87
(lp88
(dp89
S'porttitle'
p90
S'in'
p91
sS'portnum'
p92
I0
sS'connections'
p93
(lp94
(dp95
S'dest'
p96
(dp97
S'portName'
p98
g91
sS'portID'
p99
I4690205288
sS'portNum'
p100
I0
sS'nodeID'
p101
I4690171912
ssS'src'
p102
(dp103
g98
S'out'
p104
sg99
I4682506776
sg100
I0
sg101
I4682498584
ssasS'widgetTitle'
p105
NsS'porttype'
p106
I65540
sS'obligation'
p107
I100
sS'id'
p108
I4690205288
sasS'stdwalltime'
p109
S'None'
p110
sS'key'
p111
S'core.fileIO.WritePickled'
p112
sg108
I4690171912
sa(dp113
g36
(dp114
g38
(lp115
(dp116
g41
S"<class 'gpi.widgets.SaveFileBrowser'>"
p117
sg43
S'File Browser'
p118
sg45
(dp119
S'outport'
p120
I00
sS'quietval'
p121
Nsg49
g50
sS'collapsed'
p122
I00
sS'inport'
p123
I00
sS'visible'
p124
I01
sS'id'
p125
I4689812528
ssa(dp126
g41
S"<class 'gpi.widgets.PushButton'>"
p127
sg43
S'Write Mode'
p128
sg45
(dp129
S'outport'
p130
I00
sS'quietval'
p131
Nsg49
I00
sS'collapsed'
p132
I00
sS'inport'
p133
I00
sS'visible'
p134
I01
sS'toggle'
p135
I01
sS'button_title'
p136
VWrite on New Filename
p137
sS'id'
p138
I4689813136
ssa(dp139
g41
S"<class 'gpi.widgets.PushButton'>"
p140
sg43
S'Write Now'
p141
sg45
(dp142
S'outport'
p143
I00
sS'quietval'
p144
Nsg49
I00
sS'collapsed'
p145
I00
sS'inport'
p146
I00
sS'visible'
p147
I01
sS'toggle'
p148
I00
sS'button_title'
p149
VWrite Right Now
p150
sS'id'
p151
I4689830424
ssasg81
g50
ssg82
S'None'
p152
sg43
g84
sg85
(lp153
F-235.0
aF30.0
asg87
(lp154
(dp155
g90
g91
sg92
I0
sg93
(lp156
(dp157
g96
(dp158
g98
g91
sg99
I4689831184
sg100
I0
sg101
I4689810096
ssg102
(dp159
g98
g104
sg99
I4690267640
sg100
I0
sg101
I4690242760
ssasg105
Nsg106
I65540
sg107
I100
sg108
I4689831184
sasg109
S'None'
p160
sg111
g112
sg108
I4689810096
sa(dp161
g36
(dp162
g38
(lp163
(dp164
g41
S"<class 'gpi.widgets.SaveFileBrowser'>"
p165
sg43
S'File Browser'
p166
sg45
(dp167
S'outport'
p168
I00
sS'quietval'
p169
Nsg49
g50
sS'collapsed'
p170
I00
sS'inport'
p171
I00
sS'visible'
p172
I01
sS'id'
p173
I4689566160
ssa(dp174
g41
S"<class 'gpi.widgets.StringBox'>"
p175
sg43
S'set-name'
p176
sg45
(dp177
S'maskedval'
p178
S'x\x9cK/\xc8LI,I\x04\x00\x0b\x81\x02\xdb'
p179
sS'outport'
p180
I00
sS'quietval'
p181
Nsg49
S'gpidata'
p182
sS'collapsed'
p183
I00
sS'mask'
p184
I00
sS'inport'
p185
I00
sS'visible'
p186
I01
sS'id'
p187
I4689566768
ssa(dp188
g41
S"<class 'gpi.widgets.PushButton'>"
p189
sg43
S'compress (GZIP)'
p190
sg45
(dp191
S'outport'
p192
I00
sS'quietval'
p193
Nsg49
I00
sS'collapsed'
p194
I00
sS'inport'
p195
I00
sS'visible'
p196
I01
sS'toggle'
p197
I01
sS'button_title'
p198
V
p199
sS'id'
p200
I4689567224
ssa(dp201
g41
S"<class 'gpi.widgets.PushButton'>"
p202
sg43
S'Write Mode'
p203
sg45
(dp204
S'outport'
p205
I00
sS'quietval'
p206
Nsg49
I00
sS'collapsed'
p207
I00
sS'inport'
p208
I00
sS'visible'
p209
I01
sS'toggle'
p210
I01
sS'button_title'
p211
VWrite on New Filename
p212
sS'id'
p213
I4689576320
ssa(dp214
g41
S"<class 'gpi.widgets.PushButton'>"
p215
sg43
S'Write Now'
p216
sg45
(dp217
S'outport'
p218
I00
sS'quietval'
p219
Nsg49
I00
sS'collapsed'
p220
I00
sS'inport'
p221
I00
sS'visible'
p222
I01
sS'toggle'
p223
I00
sS'button_title'
p224
VWrite Right Now
p225
sS'id'
p226
I4689577080
ssasg81
g50
ssg82
S'None'
p227
sg43
S'WriteHDF5'
p228
sg85
(lp229
F-45.0
aF60.0
asg87
(lp230
(dp231
g90
g91
sg92
I0
sg93
(lp232
(dp233
g96
(dp234
g98
g91
sg99
I4689577840
sg100
I0
sg101
I4689563728
ssg102
(dp235
g98
g104
sg99
I4682506776
sg100
I0
sg101
I4682498584
ssasg105
Nsg106
I65540
sg107
I100
sg108
I4689577840
sasg109
S'None'
p236
sg111
S'core.fileIO.WriteHDF5'
p237
sg108
I4689563728
sa(dp238
g36
(dp239
g38
(lp240
(dp241
g41
S"<class 'gpi.widgets.TextBox'>"
p242
sg43
S'I/O Info:'
p243
sg45
(dp244
S'openExternalLinks'
p245
I00
sS'outport'
p246
I00
sS'quietval'
p247
Nsg49
g50
sS'collapsed'
p248
I00
sS'inport'
p249
I00
sS'visible'
p250
I01
sS'wordwrap'
p251
I00
sS'id'
p252
I4682850992
ssa(dp253
g41
S"<class 'gpi.widgets.OpenFileBrowser'>"
p254
sg43
S'File Browser'
p255
sg45
(dp256
S'outport'
p257
I00
sS'quietval'
p258
Nsg49
g50
sS'collapsed'
p259
I00
sS'inport'
p260
I00
sS'visible'
p261
I01
sS'id'
p262
I4682851448
ssa(dp263
g41
S"<class 'gpi.widgets.SpinBox'>"
p264
sg43
S'Skip Bytes:'
p265
sg45
(dp266
S'outport'
p267
I00
sS'quietval'
p268
Nsg49
I0
sS'min'
p269
I0
sS'max'
p270
I2147483647
sS'collapsed'
p271
I00
sS'wrapping'
p272
I00
sS'immediate'
p273
I00
sS'label'
p274
g199
sS'singlestep'
p275
I1
sS'visible'
p276
I01
sS'inport'
p277
I00
sS'id'
p278
I4682852056
ssa(dp279
g41
S"<class 'gpi.widgets.ExclusiveRadioButtons'>"
p280
sg43
S'<type>'
p281
sg45
(dp282
S'outport'
p283
I00
sS'quietval'
p284
Nsg49
I0
sS'collapsed'
p285
I00
sS'inport'
p286
I00
sS'visible'
p287
I01
sS'id'
p288
I4682852968
ssa(dp289
g41
S"<class 'gpi.widgets.Slider'>"
p290
sg43
S'ndim:'
p291
sg45
(dp292
S'outport'
p293
I00
sS'quietval'
p294
Nsg49
I1
sS'min'
p295
I1
sS'max'
p296
I8
sS'collapsed'
p297
I00
sS'inport'
p298
I00
sS'visible'
p299
I01
sS'id'
p300
I4682854480
ssa(dp301
g41
S"<class 'gpi.widgets.SpinBox'>"
p302
sg43
S'Dimension: 0'
p303
sg45
(dp304
S'outport'
p305
I00
sS'quietval'
p306
Nsg49
I1
sS'min'
p307
I1
sS'max'
p308
I2147483647
sS'collapsed'
p309
I00
sS'wrapping'
p310
I00
sS'immediate'
p311
I00
sS'label'
p312
g199
sS'singlestep'
p313
I1
sS'visible'
p314
I01
sS'inport'
p315
I00
sS'id'
p316
I4682855696
ssa(dp317
g41
S"<class 'gpi.widgets.SpinBox'>"
p318
sg43
S'Dimension: 1'
p319
sg45
(dp320
S'outport'
p321
I00
sS'quietval'
p322
Nsg49
I1
sS'min'
p323
I1
sS'max'
p324
I2147483647
sS'collapsed'
p325
I00
sS'wrapping'
p326
I00
sS'immediate'
p327
I00
sS'label'
p328
g199
sS'singlestep'
p329
I1
sS'visible'
p330
I00
sS'inport'
p331
I00
sS'id'
p332
I4682856608
ssa(dp333
g41
S"<class 'gpi.widgets.SpinBox'>"
p334
sg43
S'Dimension: 2'
p335
sg45
(dp336
S'outport'
p337
I00
sS'quietval'
p338
Nsg49
I1
sS'min'
p339
I1
sS'max'
p340
I2147483647
sS'collapsed'
p341
I00
sS'wrapping'
p342
I00
sS'immediate'
p343
I00
sS'label'
p344
g199
sS'singlestep'
p345
I1
sS'visible'
p346
I00
sS'inport'
p347
I00
sS'id'
p348
I4682857520
ssa(dp349
g41
S"<class 'gpi.widgets.SpinBox'>"
p350
sg43
S'Dimension: 3'
p351
sg45
(dp352
S'outport'
p353
I00
sS'quietval'
p354
Nsg49
I1
sS'min'
p355
I1
sS'max'
p356
I2147483647
sS'collapsed'
p357
I00
sS'wrapping'
p358
I00
sS'immediate'
p359
I00
sS'label'
p360
g199
sS'singlestep'
p361
I1
sS'visible'
p362
I00
sS'inport'
p363
I00
sS'id'
p364
I4682862672
ssa(dp365
g41
S"<class 'gpi.widgets.SpinBox'>"
p366
sg43
S'Dimension: 4'
p367
sg45
(dp368
S'outport'
p369
I00
sS'quietval'
p370
Nsg49
I1
sS'min'
p371
I1
sS'max'
p372
I2147483647
sS'collapsed'
p373
I00
sS'wrapping'
p374
I00
sS'immediate'
p375
I00
sS'label'
p376
g199
sS'singlestep'
p377
I1
sS'visible'
p378
I00
sS'inport'
p379
I00
sS'id'
p380
I4682863584
ssa(dp381
g41
S"<class 'gpi.widgets.SpinBox'>"
p382
sg43
S'Dimension: 5'
p383
sg45
(dp384
S'outport'
p385
I00
sS'quietval'
p386
Nsg49
I1
sS'min'
p387
I1
sS'max'
p388
I2147483647
sS'collapsed'
p389
I00
sS'wrapping'
p390
I00
sS'immediate'
p391
I00
sS'label'
p392
g199
sS'singlestep'
p393
I1
sS'visible'
p394
I00
sS'inport'
p395
I00
sS'id'
p396
I4682864496
ssa(dp397
g41
S"<class 'gpi.widgets.SpinBox'>"
p398
sg43
S'Dimension: 6'
p399
sg45
(dp400
S'outport'
p401
I00
sS'quietval'
p402
Nsg49
I1
sS'min'
p403
I1
sS'max'
p404
I2147483647
sS'collapsed'
p405
I00
sS'wrapping'
p406
I00
sS'immediate'
p407
I00
sS'label'
p408
g199
sS'singlestep'
p409
I1
sS'visible'
p410
I00
sS'inport'
p411
I00
sS'id'
p412
I4682865408
ssa(dp413
g41
S"<class 'gpi.widgets.SpinBox'>"
p414
sg43
S'Dimension: 7'
p415
sg45
(dp416
S'outport'
p417
I00
sS'quietval'
p418
Nsg49
I1
sS'min'
p419
I1
sS'max'
p420
I2147483647
sS'collapsed'
p421
I00
sS'wrapping'
p422
I00
sS'immediate'
p423
I00
sS'label'
p424
g199
sS'singlestep'
p425
I1
sS'visible'
p426
I00
sS'inport'
p427
I00
sS'id'
p428
I4682866320
ssa(dp429
g41
S"<class 'gpi.widgets.PushButton'>"
p430
sg43
S'Compute'
p431
sg45
(dp432
S'outport'
p433
I00
sS'quietval'
p434
Nsg49
I00
sS'collapsed'
p435
I00
sS'inport'
p436
I00
sS'visible'
p437
I01
sS'toggle'
p438
I01
sS'button_title'
p439
g199
sS'id'
p440
I4682871472
ssasg81
g50
ssg82
S'0.0885316133499'
p441
sg43
S'ReadRaw'
p442
sg85
(lp443
F235.0
aF-90.0
asg87
(lp444
(dp445
g90
g104
sg92
I0
sg93
(lp446
(dp447
g96
(dp448
g98
g91
sg99
I4682704600
sg100
I0
sg101
I4682679416
ssg102
(dp449
g98
g104
sg99
I4682872232
sg100
I0
sg101
I4682823840
ssa(dp450
g96
(dp451
g98
g91
sg99
I4701229896
sg100
I0
sg101
I4701225192
ssg102
(dp452
g98
g104
sg99
I4682872232
sg100
I0
sg101
I4682823840
ssa(dp453
g96
(dp454
g98
g91
sg99
I4689957248
sg100
I0
sg101
I4689926608
ssg102
(dp455
g98
g104
sg99
I4682872232
sg100
I0
sg101
I4682823840
ssa(dp456
g96
(dp457
g98
g91
sg99
I4689324496
sg100
I0
sg101
I4689299312
ssg102
(dp458
g98
g104
sg99
I4682872232
sg100
I0
sg101
I4682823840
ssa(dp459
g96
(dp460
g98
g91
sg99
I4690240784
sg100
I0
sg101
I4690223792
ssg102
(dp461
g98
g104
sg99
I4682872232
sg100
I0
sg101
I4682823840
ssa(dp462
g96
(dp463
g98
g91
sg99
I4689984408
sg100
I0
sg101
I4689959224
ssg102
(dp464
g98
g104
sg99
I4682872232
sg100
I0
sg101
I4682823840
ssasg105
Nsg106
I65541
sg107
Nsg108
I4682872232
sasg109
S'0.00872457027437'
p465
sg111
S'core.fileIO.ReadRaw'
p466
sg108
I4682823840
sS'walltime'
p467
S'0.0798070430756'
p468
sa(dp469
g36
(dp470
g38
(lp471
(dp472
g41
S"<class 'gpi.widgets.SaveFileBrowser'>"
p473
sg43
S'File Browser'
p474
sg45
(dp475
S'outport'
p476
I00
sS'quietval'
p477
Nsg49
g50
sS'collapsed'
p478
I00
sS'inport'
p479
I00
sS'visible'
p480
I01
sS'id'
p481
I4689463912
ssa(dp482
g41
S"<class 'gpi.widgets.PushButton'>"
p483
sg43
S'Write Mode'
p484
sg45
(dp485
S'outport'
p486
I00
sS'quietval'
p487
Nsg49
I00
sS'collapsed'
p488
I00
sS'inport'
p489
I00
sS'visible'
p490
I01
sS'toggle'
p491
I01
sS'button_title'
p492
VWrite on New Filename
p493
sS'id'
p494
I4689464520
ssa(dp495
g41
S"<class 'gpi.widgets.PushButton'>"
p496
sg43
S'Write Now'
p497
sg45
(dp498
S'outport'
p499
I00
sS'quietval'
p500
Nsg49
I00
sS'collapsed'
p501
I00
sS'inport'
p502
I00
sS'visible'
p503
I01
sS'toggle'
p504
I00
sS'button_title'
p505
VWrite Right Now
p506
sS'id'
p507
I4689481808
ssasg81
g50
ssg82
S'None'
p508
sg43
S'WriteRaw'
p509
sg85
(lp510
F140.0
aF0.0
asg87
(lp511
(dp512
g90
g91
sg92
I0
sg93
(lp513
(dp514
g96
(dp515
g98
g91
sg99
I4689482568
sg100
I0
sg101
I4689461480
ssg102
(dp516
g98
g104
sg99
I4689853184
sg100
I0
sg101
I4689833160
ssasg105
Nsg106
I65540
sg107
I100
sg108
I4689482568
sasg109
S'None'
p517
sg111
S'core.fileIO.WriteRaw'
p518
sg108
I4689461480
sa(dp519
g36
(dp520
g38
(lp521
(dp522
g41
S"<class 'gpi.widgets.TextBox'>"
p523
sg43
S'I/O Info:'
p524
sg45
(dp525
S'openExternalLinks'
p526
I00
sS'outport'
p527
I00
sS'quietval'
p528
Nsg49
g50
sS'collapsed'
p529
I00
sS'inport'
p530
I00
sS'visible'
p531
I01
sS'wordwrap'
p532
I00
sS'id'
p533
I4689882312
ssa(dp534
g41
S"<class 'gpi.widgets.OpenFileBrowser'>"
p535
sg43
S'File Browser'
p536
sg45
(dp537
S'outport'
p538
I00
sS'quietval'
p539
Nsg49
g50
sS'collapsed'
p540
I00
sS'inport'
p541
I00
sS'visible'
p542
I01
sS'id'
p543
I4689882768
ssa(dp544
g41
S"<class 'gpi.widgets.PushButton'>"
p545
sg43
S'Gray Scale'
p546
sg45
(dp547
S'outport'
p548
I00
sS'quietval'
p549
Nsg49
I00
sS'collapsed'
p550
I00
sS'inport'
p551
I00
sS'visible'
p552
I01
sS'toggle'
p553
I01
sS'button_title'
p554
g199
sS'id'
p555
I4689887616
ssa(dp556
g41
S"<class 'gpi.widgets.PushButton'>"
p557
sg43
S'Swap Colors (RGB -> BGR)'
p558
sg45
(dp559
S'outport'
p560
I00
sS'quietval'
p561
Nsg49
I00
sS'collapsed'
p562
I00
sS'inport'
p563
I00
sS'visible'
p564
I01
sS'toggle'
p565
I01
sS'button_title'
p566
VRGB
p567
sS'id'
p568
I4689888376
ssasg81
g50
ssg82
S'0.0867259502411'
p569
sg43
S'ReadImage'
p570
sg85
(lp571
F-140.0
aF-90.0
asg87
(lp572
(dp573
g90
g104
sg92
I0
sg93
(lp574
(dp575
g96
(dp576
g98
g91
sg99
I4682423800
sg100
I0
sg101
I4681919384
ssg102
(dp577
g98
g104
sg99
I4689889136
sg100
I0
sg101
I4689879880
ssa(dp578
g96
(dp579
g98
g91
sg99
I4689383056
sg100
I0
sg101
I4689361968
ssg102
(dp580
g98
g104
sg99
I4689889136
sg100
I0
sg101
I4689879880
ssa(dp581
g96
(dp582
g98
g91
sg99
I4689537032
sg100
I0
sg101
I4689520040
ssg102
(dp583
g98
g104
sg99
I4689889136
sg100
I0
sg101
I4689879880
ssa(dp584
g96
(dp585
g98
g91
sg99
I4689763072
sg100
I0
sg101
I4689729696
ssg102
(dp586
g98
g104
sg99
I4689889136
sg100
I0
sg101
I4689879880
ssa(dp587
g96
(dp588
g98
g91
sg99
I4701167096
sg100
I0
sg101
I4701146008
ssg102
(dp589
g98
g104
sg99
I4689889136
sg100
I0
sg101
I4689879880
ssa(dp590
g96
(dp591
g98
g91
sg99
I4690114112
sg100
I0
sg101
I4690083472
ssg102
(dp592
g98
g104
sg99
I4689889136
sg100
I0
sg101
I4689879880
ssasg105
Nsg106
I65541
sg107
Nsg108
I4689889136
sasg109
S'0.0106720924377'
p593
sg111
S'core.fileIO.ReadImage'
p594
sg108
I4689879880
sg467
S'0.0760538578033'
p595
sa(dp596
g36
(dp597
g38
(lp598
(dp599
g41
S"<class 'gpi.widgets.SaveFileBrowser'>"
p600
sg43
S'File Browser'
p601
sg45
(dp602
S'outport'
p603
I00
sS'quietval'
p604
Nsg49
g50
sS'collapsed'
p605
I00
sS'inport'
p606
I00
sS'visible'
p607
I01
sS'id'
p608
I4682765128
ssa(dp609
g41
S"<class 'gpi.widgets.PushButton'>"
p610
sg43
S'Write Mode'
p611
sg45
(dp612
S'outport'
p613
I00
sS'quietval'
p614
Nsg49
I00
sS'collapsed'
p615
I00
sS'inport'
p616
I00
sS'visible'
p617
I01
sS'toggle'
p618
I01
sS'button_title'
p619
VWrite on New Filename
p620
sS'id'
p621
I4682765736
ssa(dp622
g41
S"<class 'gpi.widgets.PushButton'>"
p623
sg43
S'Write Now'
p624
sg45
(dp625
S'outport'
p626
I00
sS'quietval'
p627
Nsg49
I00
sS'collapsed'
p628
I00
sS'inport'
p629
I00
sS'visible'
p630
I01
sS'toggle'
p631
I00
sS'button_title'
p632
VWrite Right Now
p633
sS'id'
p634
I4682766496
ssasg81
g50
ssg82
S'None'
p635
sg43
g509
sg85
(lp636
F-45.0
aF90.0
asg87
(lp637
(dp638
g90
g91
sg92
I0
sg93
(lp639
(dp640
g96
(dp641
g98
g91
sg99
I4682767256
sg100
I0
sg101
I4682742072
ssg102
(dp642
g98
g104
sg99
I4682506776
sg100
I0
sg101
I4682498584
ssasg105
Nsg106
I65540
sg107
I100
sg108
I4682767256
sasg109
S'None'
p643
sg111
g518
sg108
I4682742072
sa(dp644
g36
(dp645
g38
(lp646
(dp647
g41
S"<class 'gpi.widgets.SaveFileBrowser'>"
p648
sg43
S'File Browser'
p649
sg45
(dp650
S'outport'
p651
I00
sS'quietval'
p652
Nsg49
g50
sS'collapsed'
p653
I00
sS'inport'
p654
I00
sS'visible'
p655
I01
sS'id'
p656
I4701113088
ssa(dp657
g41
S"<class 'gpi.widgets.PushButton'>"
p658
sg43
S'Write Mode'
p659
sg45
(dp660
S'outport'
p661
I00
sS'quietval'
p662
Nsg49
I00
sS'collapsed'
p663
I00
sS'inport'
p664
I00
sS'visible'
p665
I01
sS'toggle'
p666
I01
sS'button_title'
p667
VWrite on New Filename
p668
sS'id'
p669
I4701113696
ssa(dp670
g41
S"<class 'gpi.widgets.PushButton'>"
p671
sg43
S'Write Now'
p672
sg45
(dp673
S'outport'
p674
I00
sS'quietval'
p675
Nsg49
I00
sS'collapsed'
p676
I00
sS'inport'
p677
I00
sS'visible'
p678
I01
sS'toggle'
p679
I00
sS'button_title'
p680
VWrite Right Now
p681
sS'id'
p682
I4701143272
ssasg81
g50
ssg82
S'None'
p683
sg43
S'WriteCSV'
p684
sg85
(lp685
F-45.0
aF0.0
asg87
(lp686
(dp687
g90
g91
sg92
I0
sg93
(lp688
(dp689
g96
(dp690
g98
g91
sg99
I4701144032
sg100
I0
sg101
I4701110656
ssg102
(dp691
g98
g104
sg99
I4682506776
sg100
I0
sg101
I4682498584
ssasg105
Nsg106
I65540
sg107
I100
sg108
I4701144032
sasg109
S'None'
p692
sg111
S'core.fileIO.WriteCSV'
p693
sg108
I4701110656
sa(dp694
g36
(dp695
g38
(lp696
(dp697
g41
S"<class 'gpi.widgets.SaveFileBrowser'>"
p698
sg43
S'File Browser'
p699
sg45
(dp700
S'outport'
p701
I00
sS'quietval'
p702
Nsg49
g50
sS'collapsed'
p703
I00
sS'inport'
p704
I00
sS'visible'
p705
I01
sS'id'
p706
I4690054648
ssa(dp707
g41
S"<class 'gpi.widgets.PushButton'>"
p708
sg43
S'Write Mode'
p709
sg45
(dp710
S'outport'
p711
I00
sS'quietval'
p712
Nsg49
I00
sS'collapsed'
p713
I00
sS'inport'
p714
I00
sS'visible'
p715
I01
sS'toggle'
p716
I01
sS'button_title'
p717
VWrite on New Filename
p718
sS'id'
p719
I4690079976
ssa(dp720
g41
S"<class 'gpi.widgets.PushButton'>"
p721
sg43
S'Write Now'
p722
sg45
(dp723
S'outport'
p724
I00
sS'quietval'
p725
Nsg49
I00
sS'collapsed'
p726
I00
sS'inport'
p727
I00
sS'visible'
p728
I01
sS'toggle'
p729
I00
sS'button_title'
p730
VWrite Right Now
p731
sS'id'
p732
I4690080736
ssasg81
g50
ssg82
S'None'
p733
sg43
S'WriteImage'
p734
sg85
(lp735
F140.0
aF-60.0
asg87
(lp736
(dp737
g90
g91
sg92
I0
sg93
(lp738
(dp739
g96
(dp740
g98
g91
sg99
I4690081496
sg100
I0
sg101
I4690052216
ssg102
(dp741
g98
g104
sg99
I4689853184
sg100
I0
sg101
I4689833160
ssasg105
Nsg106
I65540
sg107
I100
sg108
I4690081496
sasg109
S'None'
p742
sg111
S'core.fileIO.WriteImage'
p743
sg108
I4690052216
sa(dp744
g36
(dp745
g38
(lp746
(dp747
g41
S"<class 'gpi.widgets.SaveFileBrowser'>"
p748
sg43
S'File Browser'
p749
sg45
(dp750
S'outport'
p751
I00
sS'quietval'
p752
Nsg49
g50
sS'collapsed'
p753
I00
sS'inport'
p754
I00
sS'visible'
p755
I01
sS'id'
p756
I4682671072
ssa(dp757
g41
S"<class 'gpi.widgets.PushButton'>"
p758
sg43
S'Write Mode'
p759
sg45
(dp760
S'outport'
p761
I00
sS'quietval'
p762
Nsg49
I00
sS'collapsed'
p763
I00
sS'inport'
p764
I00
sS'visible'
p765
I01
sS'toggle'
p766
I01
sS'button_title'
p767
VWrite on New Filename
p768
sS'id'
p769
I4682671680
ssa(dp770
g41
S"<class 'gpi.widgets.PushButton'>"
p771
sg43
S'Write Now'
p772
sg45
(dp773
S'outport'
p774
I00
sS'quietval'
p775
Nsg49
I00
sS'collapsed'
p776
I00
sS'inport'
p777
I00
sS'visible'
p778
I01
sS'toggle'
p779
I00
sS'button_title'
p780
VWrite Right Now
p781
sS'id'
p782
I4682672440
ssasg81
g50
ssg82
S'None'
p783
sg43
g509
sg85
(lp784
F45.0
aF-30.0
asg87
(lp785
(dp786
g90
g91
sg92
I0
sg93
(lp787
(dp788
g96
(dp789
g98
g91
sg99
I4682673200
sg100
I0
sg101
I4682643920
ssg102
(dp790
g98
g104
sg99
I4690046000
sg100
I0
sg101
I4690013688
ssasg105
Nsg106
I65540
sg107
I100
sg108
I4682673200
sasg109
S'None'
p791
sg111
g518
sg108
I4682643920
sa(dp792
g36
(dp793
g38
(lp794
(dp795
g41
S"<class 'gpi.widgets.TextBox'>"
p796
sg43
S'I/O Info:'
p797
sg45
(dp798
S'openExternalLinks'
p799
I00
sS'outport'
p800
I00
sS'quietval'
p801
Nsg49
g50
sS'collapsed'
p802
I00
sS'inport'
p803
I00
sS'visible'
p804
I01
sS'wordwrap'
p805
I00
sS'id'
p806
I4690044936
ssa(dp807
g41
S"<class 'gpi.widgets.OpenFileBrowser'>"
p808
sg43
S'File Browser'
p809
sg45
(dp810
S'outport'
p811
I00
sS'quietval'
p812
Nsg49
g50
sS'collapsed'
p813
I00
sS'inport'
p814
I00
sS'visible'
p815
I01
sS'id'
p816
I4690045392
ssasg81
g50
ssg82
S'0.082039475441'
p817
sg43
S'ReadCSV'
p818
sg85
(lp819
F45.0
aF-90.0
asg87
(lp820
(dp821
g90
g104
sg92
I0
sg93
(lp822
(dp823
g96
(dp824
g98
g91
sg99
I4682673200
sg100
I0
sg101
I4682643920
ssg102
(dp825
g98
g104
sg99
I4690046000
sg100
I0
sg101
I4690013688
ssa(dp826
g96
(dp827
g98
g91
sg99
I4689289000
sg100
I0
sg101
I4689263816
ssg102
(dp828
g98
g104
sg99
I4690046000
sg100
I0
sg101
I4690013688
ssa(dp829
g96
(dp830
g98
g91
sg99
I4689359992
sg100
I0
sg101
I4689338904
ssg102
(dp831
g98
g104
sg99
I4690046000
sg100
I0
sg101
I4690013688
ssa(dp832
g96
(dp833
g98
g91
sg99
I4689442976
sg100
I0
sg101
I4689421888
ssg102
(dp834
g98
g104
sg99
I4690046000
sg100
I0
sg101
I4690013688
ssa(dp835
g96
(dp836
g98
g91
sg99
I4689700416
sg100
I0
sg101
I4689661584
ssg102
(dp837
g98
g104
sg99
I4690046000
sg100
I0
sg101
I4690013688
ssa(dp838
g96
(dp839
g98
g91
sg99
I4689727720
sg100
I0
sg101
I4689702392
ssg102
(dp840
g98
g104
sg99
I4690046000
sg100
I0
sg101
I4690013688
ssasg105
Nsg106
I65541
sg107
Nsg108
I4690046000
sasg109
S'0.00642454624174'
p841
sg111
S'core.fileIO.ReadCSV'
p842
sg108
I4690013688
sg467
S'0.0756149291992'
p843
sa(dp844
g36
(dp845
g38
(lp846
(dp847
g41
S"<class 'gpi.widgets.TextBox'>"
p848
sg43
S'I/O Info:'
p849
sg45
(dp850
S'openExternalLinks'
p851
I00
sS'outport'
p852
I00
sS'quietval'
p853
Nsg49
g50
sS'collapsed'
p854
I00
sS'inport'
p855
I00
sS'visible'
p856
I01
sS'wordwrap'
p857
I00
sS'id'
p858
I4682501016
ssa(dp859
g41
S"<class 'gpi.widgets.OpenFileBrowser'>"
p860
sg43
S'File Browser'
p861
sg45
(dp862
S'outport'
p863
I00
sS'quietval'
p864
Nsg49
g50
sS'collapsed'
p865
I00
sS'inport'
p866
I00
sS'visible'
p867
I01
sS'id'
p868
I4682501472
ssa(dp869
g41
S"<class 'gpi.widgets.ComboBox'>"
p870
sg43
S'dataset'
p871
sg45
(dp872
S'index'
p873
I-1
sS'outport'
p874
I00
sS'quietval'
p875
Nsg49
g50
sS'items'
p876
(lp877
sS'collapsed'
p878
I00
sS'inport'
p879
I00
sS'visible'
p880
I01
sS'id'
p881
I4682506320
ssasg81
g50
ssg82
S'0.0980429649355'
p882
sg43
S'ReadHDF5'
p883
sg85
(lp884
F-45.0
aF-90.0
asg87
(lp885
(dp886
g90
g104
sg92
I0
sg93
(lp887
(dp888
g96
(dp889
g98
g91
sg99
I4701144032
sg100
I0
sg101
I4701110656
ssg102
(dp890
g98
g104
sg99
I4682506776
sg100
I0
sg101
I4682498584
ssa(dp891
g96
(dp892
g98
g91
sg99
I4689577840
sg100
I0
sg101
I4689563728
ssg102
(dp893
g98
g104
sg99
I4682506776
sg100
I0
sg101
I4682498584
ssa(dp894
g96
(dp895
g98
g91
sg99
I4689924632
sg100
I0
sg101
I4689891112
ssg102
(dp896
g98
g104
sg99
I4682506776
sg100
I0
sg101
I4682498584
ssa(dp897
g96
(dp898
g98
g91
sg99
I4689513824
sg100
I0
sg101
I4689484544
ssg102
(dp899
g98
g104
sg99
I4682506776
sg100
I0
sg101
I4682498584
ssa(dp900
g96
(dp901
g98
g91
sg99
I4690205288
sg100
I0
sg101
I4690171912
ssg102
(dp902
g98
g104
sg99
I4682506776
sg100
I0
sg101
I4682498584
ssa(dp903
g96
(dp904
g98
g91
sg99
I4682767256
sg100
I0
sg101
I4682742072
ssg102
(dp905
g98
g104
sg99
I4682506776
sg100
I0
sg101
I4682498584
ssasg105
Nsg106
I65541
sg107
Nsg108
I4682506776
sasg109
S'0.0229790210725'
p906
sg111
S'core.fileIO.ReadHDF5'
p907
sg108
I4682498584
sg467
S'0.0750639438629'
p908
sa(dp909
g36
(dp910
g38
(lp911
(dp912
g41
S"<class 'gpi.widgets.TextBox'>"
p913
sg43
S'I/O Info:'
p914
sg45
(dp915
S'openExternalLinks'
p916
I00
sS'outport'
p917
I00
sS'quietval'
p918
Nsg49
g50
sS'collapsed'
p919
I00
sS'inport'
p920
I00
sS'visible'
p921
I01
sS'wordwrap'
p922
I00
sS'id'
p923
I4690265816
ssa(dp924
g41
S"<class 'gpi.widgets.OpenFileBrowser'>"
p925
sg43
S'File Browser'
p926
sg45
(dp927
S'outport'
p928
I00
sS'quietval'
p929
Nsg49
g50
sS'collapsed'
p930
I00
sS'inport'
p931
I00
sS'visible'
p932
I01
sS'id'
p933
I4690266272
ssa(dp934
g41
S"<class 'gpi.widgets.PushButton'>"
p935
sg43
S'Squeeze'
p936
sg45
(dp937
S'outport'
p938
I00
sS'quietval'
p939
Nsg49
I00
sS'collapsed'
p940
I00
sS'inport'
p941
I00
sS'visible'
p942
I01
sS'toggle'
p943
I01
sS'button_title'
p944
g199
sS'id'
p945
I4690266880
ssasg81
g50
ssg82
S'0.0201810598373'
p946
sg43
S'ReadNPY'
p947
sg85
(lp948
F-235.0
aF-90.0
asg87
(lp949
(dp950
g90
g104
sg92
I0
sg93
(lp951
(dp952
g96
(dp953
g98
g91
sg99
I4682475680
sg100
I0
sg101
I4682438208
ssg102
(dp954
g98
g104
sg99
I4690267640
sg100
I0
sg101
I4690242760
ssa(dp955
g96
(dp956
g98
g91
sg99
I4682794560
sg100
I0
sg101
I4682769376
ssg102
(dp957
g98
g104
sg99
I4690267640
sg100
I0
sg101
I4690242760
ssa(dp958
g96
(dp959
g98
g91
sg99
I4682821864
sg100
I0
sg101
I4682796536
ssg102
(dp960
g98
g104
sg99
I4690267640
sg100
I0
sg101
I4690242760
ssa(dp961
g96
(dp962
g98
g91
sg99
I4689415672
sg100
I0
sg101
I4689385176
ssg102
(dp963
g98
g104
sg99
I4690267640
sg100
I0
sg101
I4690242760
ssa(dp964
g96
(dp965
g98
g91
sg99
I4689831184
sg100
I0
sg101
I4689810096
ssg102
(dp966
g98
g104
sg99
I4690267640
sg100
I0
sg101
I4690242760
ssa(dp967
g96
(dp968
g98
g91
sg99
I4701086536
sg100
I0
sg101
I4701061352
ssg102
(dp969
g98
g104
sg99
I4690267640
sg100
I0
sg101
I4690242760
ssasg105
Nsg106
I65541
sg107
Nsg108
I4690267640
sasg109
S'0.0194970369339'
p970
sg111
S'core.fileIO.ReadNPY'
p971
sg108
I4690242760
sg467
S'0.000684022903442'
p972
sa(dp973
g36
(dp974
g38
(lp975
(dp976
g41
S"<class 'gpi.widgets.SaveFileBrowser'>"
p977
sg43
S'File Browser'
p978
sg45
(dp979
S'outport'
p980
I00
sS'quietval'
p981
Nsg49
g50
sS'collapsed'
p982
I00
sS'inport'
p983
I00
sS'visible'
p984
I01
sS'id'
p985
I4701044816
ssa(dp986
g41
S"<class 'gpi.widgets.PushButton'>"
p987
sg43
S'Write Mode'
p988
sg45
(dp989
S'outport'
p990
I00
sS'quietval'
p991
Nsg49
I00
sS'collapsed'
p992
I00
sS'inport'
p993
I00
sS'visible'
p994
I01
sS'toggle'
p995
I01
sS'button_title'
p996
VWrite on New Filename
p997
sS'id'
p998
I4701045424
ssa(dp999
g41
S"<class 'gpi.widgets.PushButton'>"
p1000
sg43
S'Write Now'
p1001
sg45
(dp1002
S'outport'
p1003
I00
sS'quietval'
p1004
Nsg49
I00
sS'collapsed'
p1005
I00
sS'inport'
p1006
I00
sS'visible'
p1007
I01
sS'toggle'
p1008
I00
sS'button_title'
p1009
VWrite Right Now
p1010
sS'id'
p1011
I4701046184
ssasg81
g50
ssg82
S'None'
p1012
sg43
S'WriteNPY'
p1013
sg85
(lp1014
F140.0
aF30.0
asg87
(lp1015
(dp1016
g90
g91
sg92
I0
sg93
(lp1017
(dp1018
g96
(dp1019
g98
g91
sg99
I4701046944
sg100
I0
sg101
I4690269760
ssg102
(dp1020
g98
g104
sg99
I4689853184
sg100
I0
sg101
I4689833160
ssasg105
Nsg106
I65540
sg107
I100
sg108
I4701046944
sasg109
S'None'
p1021
sg111
S'core.fileIO.WriteNPY'
p1022
sg108
I4690269760
sa(dp1023
g36
(dp1024
g38
(lp1025
(dp1026
g41
S"<class 'gpi.widgets.SaveFileBrowser'>"
p1027
sg43
S'File Browser'
p1028
sg45
(dp1029
S'outport'
p1030
I00
sS'quietval'
p1031
Nsg49
g50
sS'collapsed'
p1032
I00
sS'inport'
p1033
I00
sS'visible'
p1034
I01
sS'id'
p1035
I4701227624
ssa(dp1036
g41
S"<class 'gpi.widgets.PushButton'>"
p1037
sg43
S'Write Mode'
p1038
sg45
(dp1039
S'outport'
p1040
I00
sS'quietval'
p1041
Nsg49
I00
sS'collapsed'
p1042
I00
sS'inport'
p1043
I00
sS'visible'
p1044
I01
sS'toggle'
p1045
I01
sS'button_title'
p1046
VWrite on New Filename
p1047
sS'id'
p1048
I4701228232
ssa(dp1049
g41
S"<class 'gpi.widgets.PushButton'>"
p1050
sg43
S'Write Now'
p1051
sg45
(dp1052
S'outport'
p1053
I00
sS'quietval'
p1054
Nsg49
I00
sS'collapsed'
p1055
I00
sS'inport'
p1056
I00
sS'visible'
p1057
I01
sS'toggle'
p1058
I00
sS'button_title'
p1059
VWrite Right Now
p1060
sS'id'
p1061
I4701229136
ssasg81
g50
ssg82
S'None'
p1062
sg43
g684
sg85
(lp1063
F235.0
aF60.0
asg87
(lp1064
(dp1065
g90
g91
sg92
I0
sg93
(lp1066
(dp1067
g96
(dp1068
g98
g91
sg99
I4701229896
sg100
I0
sg101
I4701225192
ssg102
(dp1069
g98
g104
sg99
I4682872232
sg100
I0
sg101
I4682823840
ssasg105
Nsg106
I65540
sg107
I100
sg108
I4701229896
sasg109
S'None'
p1070
sg111
g693
sg108
I4701225192
sa(dp1071
g36
(dp1072
g38
(lp1073
(dp1074
g41
S"<class 'gpi.widgets.SaveFileBrowser'>"
p1075
sg43
S'File Browser'
p1076
sg45
(dp1077
S'outport'
p1078
I00
sS'quietval'
p1079
Nsg49
g50
sS'collapsed'
p1080
I00
sS'inport'
p1081
I00
sS'visible'
p1082
I01
sS'id'
p1083
I4689640952
ssa(dp1084
g41
S"<class 'gpi.widgets.PushButton'>"
p1085
sg43
S'Write Mode'
p1086
sg45
(dp1087
S'outport'
p1088
I00
sS'quietval'
p1089
Nsg49
I00
sS'collapsed'
p1090
I00
sS'inport'
p1091
I00
sS'visible'
p1092
I01
sS'toggle'
p1093
I01
sS'button_title'
p1094
VWrite on New Filename
p1095
sS'id'
p1096
I4689658088
ssa(dp1097
g41
S"<class 'gpi.widgets.PushButton'>"
p1098
sg43
S'Write Now'
p1099
sg45
(dp1100
S'outport'
p1101
I00
sS'quietval'
p1102
Nsg49
I00
sS'collapsed'
p1103
I00
sS'inport'
p1104
I00
sS'visible'
p1105
I01
sS'toggle'
p1106
I00
sS'button_title'
p1107
VWrite Right Now
p1108
sS'id'
p1109
I4689658848
ssasg81
g50
ssg82
S'None'
p1110
sg43
g84
sg85
(lp1111
F140.0
aF90.0
asg87
(lp1112
(dp1113
g90
g91
sg92
I0
sg93
(lp1114
(dp1115
g96
(dp1116
g98
g91
sg99
I4689659608
sg100
I0
sg101
I4689638520
ssg102
(dp1117
g98
g104
sg99
I4689853184
sg100
I0
sg101
I4689833160
ssasg105
Nsg106
I65540
sg107
I100
sg108
I4689659608
sasg109
S'None'
p1118
sg111
g112
sg108
I4689638520
sa(dp1119
g36
(dp1120
g38
(lp1121
(dp1122
g41
S"<class 'gpi.widgets.SaveFileBrowser'>"
p1123
sg43
S'File Browser'
p1124
sg45
(dp1125
S'outport'
p1126
I00
sS'quietval'
p1127
Nsg49
g50
sS'collapsed'
p1128
I00
sS'inport'
p1129
I00
sS'visible'
p1130
I01
sS'id'
p1131
I4689953760
ssa(dp1132
g41
S"<class 'gpi.widgets.StringBox'>"
p1133
sg43
S'set-name'
p1134
sg45
(dp1135
S'maskedval'
p1136
S'x\x9cK/\xc8LI,I\x04\x00\x0b\x81\x02\xdb'
p1137
sS'outport'
p1138
I00
sS'quietval'
p1139
Nsg49
S'gpidata'
p1140
sS'collapsed'
p1141
I00
sS'mask'
p1142
I00
sS'inport'
p1143
I00
sS'visible'
p1144
I01
sS'id'
p1145
I4689954368
ssa(dp1146
g41
S"<class 'gpi.widgets.PushButton'>"
p1147
sg43
S'compress (GZIP)'
p1148
sg45
(dp1149
S'outport'
p1150
I00
sS'quietval'
p1151
Nsg49
I00
sS'collapsed'
p1152
I00
sS'inport'
p1153
I00
sS'visible'
p1154
I01
sS'toggle'
p1155
I01
sS'button_title'
p1156
g199
sS'id'
p1157
I4689954824
ssa(dp1158
g41
S"<class 'gpi.widgets.PushButton'>"
p1159
sg43
S'Write Mode'
p1160
sg45
(dp1161
S'outport'
p1162
I00
sS'quietval'
p1163
Nsg49
I00
sS'collapsed'
p1164
I00
sS'inport'
p1165
I00
sS'visible'
p1166
I01
sS'toggle'
p1167
I01
sS'button_title'
p1168
VWrite on New Filename
p1169
sS'id'
p1170
I4689955584
ssa(dp1171
g41
S"<class 'gpi.widgets.PushButton'>"
p1172
sg43
S'Write Now'
p1173
sg45
(dp1174
S'outport'
p1175
I00
sS'quietval'
p1176
Nsg49
I00
sS'collapsed'
p1177
I00
sS'inport'
p1178
I00
sS'visible'
p1179
I01
sS'toggle'
p1180
I00
sS'button_title'
p1181
VWrite Right Now
p1182
sS'id'
p1183
I4689956344
ssasg81
g50
ssg82
S'None'
p1184
sg43
g228
sg85
(lp1185
F235.0
aF90.0
asg87
(lp1186
(dp1187
g90
g91
sg92
I0
sg93
(lp1188
(dp1189
g96
(dp1190
g98
g91
sg99
I4689957248
sg100
I0
sg101
I4689926608
ssg102
(dp1191
g98
g104
sg99
I4682872232
sg100
I0
sg101
I4682823840
ssasg105
Nsg106
I65540
sg107
I100
sg108
I4689957248
sasg109
S'None'
p1192
sg111
g237
sg108
I4689926608
sa(dp1193
g36
(dp1194
g38
(lp1195
(dp1196
g41
S"<class 'gpi.widgets.SaveFileBrowser'>"
p1197
sg43
S'File Browser'
p1198
sg45
(dp1199
S'outport'
p1200
I00
sS'quietval'
p1201
Nsg49
g50
sS'collapsed'
p1202
I00
sS'inport'
p1203
I00
sS'visible'
p1204
I01
sS'id'
p1205
I4689511696
ssa(dp1206
g41
S"<class 'gpi.widgets.PushButton'>"
p1207
sg43
S'Write Mode'
p1208
sg45
(dp1209
S'outport'
p1210
I00
sS'quietval'
p1211
Nsg49
I00
sS'collapsed'
p1212
I00
sS'inport'
p1213
I00
sS'visible'
p1214
I01
sS'toggle'
p1215
I01
sS'button_title'
p1216
VWrite on New Filename
p1217
sS'id'
p1218
I4689512304
ssa(dp1219
g41
S"<class 'gpi.widgets.PushButton'>"
p1220
sg43
S'Write Now'
p1221
sg45
(dp1222
S'outport'
p1223
I00
sS'quietval'
p1224
Nsg49
I00
sS'collapsed'
p1225
I00
sS'inport'
p1226
I00
sS'visible'
p1227
I01
sS'toggle'
p1228
I00
sS'button_title'
p1229
VWrite Right Now
p1230
sS'id'
p1231
I4689513064
ssasg81
g50
ssg82
S'None'
p1232
sg43
g1013
sg85
(lp1233
F-45.0
aF30.0
asg87
(lp1234
(dp1235
g90
g91
sg92
I0
sg93
(lp1236
(dp1237
g96
(dp1238
g98
g91
sg99
I4689513824
sg100
I0
sg101
I4689484544
ssg102
(dp1239
g98
g104
sg99
I4682506776
sg100
I0
sg101
I4682498584
ssasg105
Nsg106
I65540
sg107
I100
sg108
I4689513824
sasg109
S'None'
p1240
sg111
g1022
sg108
I4689484544
sa(dp1241
g36
(dp1242
g38
(lp1243
(dp1244
g41
S"<class 'gpi.widgets.SaveFileBrowser'>"
p1245
sg43
S'File Browser'
p1246
sg45
(dp1247
S'outport'
p1248
I00
sS'quietval'
p1249
Nsg49
g50
sS'collapsed'
p1250
I00
sS'inport'
p1251
I00
sS'visible'
p1252
I01
sS'id'
p1253
I4689779912
ssa(dp1254
g41
S"<class 'gpi.widgets.StringBox'>"
p1255
sg43
S'set-name'
p1256
sg45
(dp1257
S'maskedval'
p1258
S'x\x9cK/\xc8LI,I\x04\x00\x0b\x81\x02\xdb'
p1259
sS'outport'
p1260
I00
sS'quietval'
p1261
Nsg49
S'gpidata'
p1262
sS'collapsed'
p1263
I00
sS'mask'
p1264
I00
sS'inport'
p1265
I00
sS'visible'
p1266
I01
sS'id'
p1267
I4689780520
ssa(dp1268
g41
S"<class 'gpi.widgets.PushButton'>"
p1269
sg43
S'compress (GZIP)'
p1270
sg45
(dp1271
S'outport'
p1272
I00
sS'quietval'
p1273
Nsg49
I00
sS'collapsed'
p1274
I00
sS'inport'
p1275
I00
sS'visible'
p1276
I01
sS'toggle'
p1277
I01
sS'button_title'
p1278
g199
sS'id'
p1279
I4689789312
ssa(dp1280
g41
S"<class 'gpi.widgets.PushButton'>"
p1281
sg43
S'Write Mode'
p1282
sg45
(dp1283
S'outport'
p1284
I00
sS'quietval'
p1285
Nsg49
I00
sS'collapsed'
p1286
I00
sS'inport'
p1287
I00
sS'visible'
p1288
I01
sS'toggle'
p1289
I01
sS'button_title'
p1290
VWrite on New Filename
p1291
sS'id'
p1292
I4689790072
ssa(dp1293
g41
S"<class 'gpi.widgets.PushButton'>"
p1294
sg43
S'Write Now'
p1295
sg45
(dp1296
S'outport'
p1297
I00
sS'quietval'
p1298
Nsg49
I00
sS'collapsed'
p1299
I00
sS'inport'
p1300
I00
sS'visible'
p1301
I01
sS'toggle'
p1302
I00
sS'button_title'
p1303
VWrite Right Now
p1304
sS'id'
p1305
I4689790832
ssasg81
g50
ssg82
S'None'
p1306
sg43
g228
sg85
(lp1307
F140.0
aF-30.0
asg87
(lp1308
(dp1309
g90
g91
sg92
I0
sg93
(lp1310
(dp1311
g96
(dp1312
g98
g91
sg99
I4689791592
sg100
I0
sg101
I4689777480
ssg102
(dp1313
g98
g104
sg99
I4689853184
sg100
I0
sg101
I4689833160
ssasg105
Nsg106
I65540
sg107
I100
sg108
I4689791592
sasg109
S'None'
p1314
sg111
g237
sg108
I4689777480
sa(dp1315
g36
(dp1316
g38
(lp1317
(dp1318
g41
S"<class 'gpi.widgets.SaveFileBrowser'>"
p1319
sg43
S'File Browser'
p1320
sg45
(dp1321
S'outport'
p1322
I00
sS'quietval'
p1323
Nsg49
g50
sS'collapsed'
p1324
I00
sS'inport'
p1325
I00
sS'visible'
p1326
I01
sS'id'
p1327
I4689341336
ssa(dp1328
g41
S"<class 'gpi.widgets.PushButton'>"
p1329
sg43
S'Write Mode'
p1330
sg45
(dp1331
S'outport'
p1332
I00
sS'quietval'
p1333
Nsg49
I00
sS'collapsed'
p1334
I00
sS'inport'
p1335
I00
sS'visible'
p1336
I01
sS'toggle'
p1337
I01
sS'button_title'
p1338
VWrite on New Filename
p1339
sS'id'
p1340
I4689341944
ssa(dp1341
g41
S"<class 'gpi.widgets.PushButton'>"
p1342
sg43
S'Write Now'
p1343
sg45
(dp1344
S'outport'
p1345
I00
sS'quietval'
p1346
Nsg49
I00
sS'collapsed'
p1347
I00
sS'inport'
p1348
I00
sS'visible'
p1349
I01
sS'toggle'
p1350
I00
sS'button_title'
p1351
VWrite Right Now
p1352
sS'id'
p1353
I4689359232
ssasg81
g50
ssg82
S'None'
p1354
sg43
g84
sg85
(lp1355
F45.0
aF90.0
asg87
(lp1356
(dp1357
g90
g91
sg92
I0
sg93
(lp1358
(dp1359
g96
(dp1360
g98
g91
sg99
I4689359992
sg100
I0
sg101
I4689338904
ssg102
(dp1361
g98
g104
sg99
I4690046000
sg100
I0
sg101
I4690013688
ssasg105
Nsg106
I65540
sg107
I100
sg108
I4689359992
sasg109
S'None'
p1362
sg111
g112
sg108
I4689338904
sa(dp1363
g36
(dp1364
g38
(lp1365
(dp1366
g41
S"<class 'gpi.widgets.SaveFileBrowser'>"
p1367
sg43
S'File Browser'
p1368
sg45
(dp1369
S'outport'
p1370
I00
sS'quietval'
p1371
Nsg49
g50
sS'collapsed'
p1372
I00
sS'inport'
p1373
I00
sS'visible'
p1374
I01
sS'id'
p1375
I4682421672
ssa(dp1376
g41
S"<class 'gpi.widgets.PushButton'>"
p1377
sg43
S'Write Mode'
p1378
sg45
(dp1379
S'outport'
p1380
I00
sS'quietval'
p1381
Nsg49
I00
sS'collapsed'
p1382
I00
sS'inport'
p1383
I00
sS'visible'
p1384
I01
sS'toggle'
p1385
I01
sS'button_title'
p1386
VWrite on New Filename
p1387
sS'id'
p1388
I4682422280
ssa(dp1389
g41
S"<class 'gpi.widgets.PushButton'>"
p1390
sg43
S'Write Now'
p1391
sg45
(dp1392
S'outport'
p1393
I00
sS'quietval'
p1394
Nsg49
I00
sS'collapsed'
p1395
I00
sS'inport'
p1396
I00
sS'visible'
p1397
I01
sS'toggle'
p1398
I00
sS'button_title'
p1399
VWrite Right Now
p1400
sS'id'
p1401
I4682423040
ssasg81
g50
ssg82
S'None'
p1402
sg43
g84
sg85
(lp1403
F-140.0
aF90.0
asg87
(lp1404
(dp1405
g90
g91
sg92
I0
sg93
(lp1406
(dp1407
g96
(dp1408
g98
g91
sg99
I4682423800
sg100
I0
sg101
I4681919384
ssg102
(dp1409
g98
g104
sg99
I4689889136
sg100
I0
sg101
I4689879880
ssasg105
Nsg106
I65540
sg107
I100
sg108
I4682423800
sasg109
S'None'
p1410
sg111
g112
sg108
I4681919384
sa(dp1411
g36
(dp1412
g38
(lp1413
(dp1414
g41
S"<class 'gpi.widgets.SaveFileBrowser'>"
p1415
sg43
S'File Browser'
p1416
sg45
(dp1417
S'outport'
p1418
I00
sS'quietval'
p1419
Nsg49
g50
sS'collapsed'
p1420
I00
sS'inport'
p1421
I00
sS'visible'
p1422
I01
sS'id'
p1423
I4682819592
ssa(dp1424
g41
S"<class 'gpi.widgets.PushButton'>"
p1425
sg43
S'Write Mode'
p1426
sg45
(dp1427
S'outport'
p1428
I00
sS'quietval'
p1429
Nsg49
I00
sS'collapsed'
p1430
I00
sS'inport'
p1431
I00
sS'visible'
p1432
I01
sS'toggle'
p1433
I01
sS'button_title'
p1434
VWrite on New Filename
p1435
sS'id'
p1436
I4682820200
ssa(dp1437
g41
S"<class 'gpi.widgets.PushButton'>"
p1438
sg43
S'Write Now'
p1439
sg45
(dp1440
S'outport'
p1441
I00
sS'quietval'
p1442
Nsg49
I00
sS'collapsed'
p1443
I00
sS'inport'
p1444
I00
sS'visible'
p1445
I01
sS'toggle'
p1446
I00
sS'button_title'
p1447
VWrite Right Now
p1448
sS'id'
p1449
I4682820960
ssasg81
g50
ssg82
S'None'
p1450
sg43
g734
sg85
(lp1451
F-235.0
aF90.0
asg87
(lp1452
(dp1453
g90
g91
sg92
I0
sg93
(lp1454
(dp1455
g96
(dp1456
g98
g91
sg99
I4682821864
sg100
I0
sg101
I4682796536
ssg102
(dp1457
g98
g104
sg99
I4690267640
sg100
I0
sg101
I4690242760
ssasg105
Nsg106
I65540
sg107
I100
sg108
I4682821864
sasg109
S'None'
p1458
sg111
g743
sg108
I4682796536
sa(dp1459
g36
(dp1460
g38
(lp1461
(dp1462
g41
S"<class 'gpi.widgets.SaveFileBrowser'>"
p1463
sg43
S'File Browser'
p1464
sg45
(dp1465
S'outport'
p1466
I00
sS'quietval'
p1467
Nsg49
g50
sS'collapsed'
p1468
I00
sS'inport'
p1469
I00
sS'visible'
p1470
I01
sS'id'
p1471
I4689760944
ssa(dp1472
g41
S"<class 'gpi.widgets.PushButton'>"
p1473
sg43
S'Write Mode'
p1474
sg45
(dp1475
S'outport'
p1476
I00
sS'quietval'
p1477
Nsg49
I00
sS'collapsed'
p1478
I00
sS'inport'
p1479
I00
sS'visible'
p1480
I01
sS'toggle'
p1481
I01
sS'button_title'
p1482
VWrite on New Filename
p1483
sS'id'
p1484
I4689761552
ssa(dp1485
g41
S"<class 'gpi.widgets.PushButton'>"
p1486
sg43
S'Write Now'
p1487
sg45
(dp1488
S'outport'
p1489
I00
sS'quietval'
p1490
Nsg49
I00
sS'collapsed'
p1491
I00
sS'inport'
p1492
I00
sS'visible'
p1493
I01
sS'toggle'
p1494
I00
sS'button_title'
p1495
VWrite Right Now
p1496
sS'id'
p1497
I4689762312
ssasg81
g50
ssg82
S'None'
p1498
sg43
g1013
sg85
(lp1499
F-140.0
aF0.0
asg87
(lp1500
(dp1501
g90
g91
sg92
I0
sg93
(lp1502
(dp1503
g96
(dp1504
g98
g91
sg99
I4689763072
sg100
I0
sg101
I4689729696
ssg102
(dp1505
g98
g104
sg99
I4689889136
sg100
I0
sg101
I4689879880
ssasg105
Nsg106
I65540
sg107
I100
sg108
I4689763072
sasg109
S'None'
p1506
sg111
g1022
sg108
I4689729696
sa(dp1507
g36
(dp1508
g38
(lp1509
(dp1510
g41
S"<class 'gpi.widgets.SaveFileBrowser'>"
p1511
sg43
S'File Browser'
p1512
sg45
(dp1513
S'outport'
p1514
I00
sS'quietval'
p1515
Nsg49
g50
sS'collapsed'
p1516
I00
sS'inport'
p1517
I00
sS'visible'
p1518
I01
sS'id'
p1519
I4682771808
ssa(dp1520
g41
S"<class 'gpi.widgets.PushButton'>"
p1521
sg43
S'Write Mode'
p1522
sg45
(dp1523
S'outport'
p1524
I00
sS'quietval'
p1525
Nsg49
I00
sS'collapsed'
p1526
I00
sS'inport'
p1527
I00
sS'visible'
p1528
I01
sS'toggle'
p1529
I01
sS'button_title'
p1530
VWrite on New Filename
p1531
sS'id'
p1532
I4682793040
ssa(dp1533
g41
S"<class 'gpi.widgets.PushButton'>"
p1534
sg43
S'Write Now'
p1535
sg45
(dp1536
S'outport'
p1537
I00
sS'quietval'
p1538
Nsg49
I00
sS'collapsed'
p1539
I00
sS'inport'
p1540
I00
sS'visible'
p1541
I01
sS'toggle'
p1542
I00
sS'button_title'
p1543
VWrite Right Now
p1544
sS'id'
p1545
I4682793800
ssasg81
g50
ssg82
S'None'
p1546
sg43
g684
sg85
(lp1547
F-235.0
aF60.0
asg87
(lp1548
(dp1549
g90
g91
sg92
I0
sg93
(lp1550
(dp1551
g96
(dp1552
g98
g91
sg99
I4682794560
sg100
I0
sg101
I4682769376
ssg102
(dp1553
g98
g104
sg99
I4690267640
sg100
I0
sg101
I4690242760
ssasg105
Nsg106
I65540
sg107
I100
sg108
I4682794560
sasg109
S'None'
p1554
sg111
g693
sg108
I4682769376
sa(dp1555
g36
(dp1556
g38
(lp1557
(dp1558
g41
S"<class 'gpi.widgets.SaveFileBrowser'>"
p1559
sg43
S'File Browser'
p1560
sg45
(dp1561
S'outport'
p1562
I00
sS'quietval'
p1563
Nsg49
g50
sS'collapsed'
p1564
I00
sS'inport'
p1565
I00
sS'visible'
p1566
I01
sS'id'
p1567
I4689380928
ssa(dp1568
g41
S"<class 'gpi.widgets.PushButton'>"
p1569
sg43
S'Write Mode'
p1570
sg45
(dp1571
S'outport'
p1572
I00
sS'quietval'
p1573
Nsg49
I00
sS'collapsed'
p1574
I00
sS'inport'
p1575
I00
sS'visible'
p1576
I01
sS'toggle'
p1577
I01
sS'button_title'
p1578
VWrite on New Filename
p1579
sS'id'
p1580
I4689381536
ssa(dp1581
g41
S"<class 'gpi.widgets.PushButton'>"
p1582
sg43
S'Write Now'
p1583
sg45
(dp1584
S'outport'
p1585
I00
sS'quietval'
p1586
Nsg49
I00
sS'collapsed'
p1587
I00
sS'inport'
p1588
I00
sS'visible'
p1589
I01
sS'toggle'
p1590
I00
sS'button_title'
p1591
VWrite Right Now
p1592
sS'id'
p1593
I4689382296
ssasg81
g50
ssg82
S'None'
p1594
sg43
g509
sg85
(lp1595
F-140.0
aF30.0
asg87
(lp1596
(dp1597
g90
g91
sg92
I0
sg93
(lp1598
(dp1599
g96
(dp1600
g98
g91
sg99
I4689383056
sg100
I0
sg101
I4689361968
ssg102
(dp1601
g98
g104
sg99
I4689889136
sg100
I0
sg101
I4689879880
ssasg105
Nsg106
I65540
sg107
I100
sg108
I4689383056
sasg109
S'None'
p1602
sg111
g518
sg108
I4689361968
sa(dp1603
g36
(dp1604
g38
(lp1605
(dp1606
g41
S"<class 'gpi.widgets.SaveFileBrowser'>"
p1607
sg43
S'File Browser'
p1608
sg45
(dp1609
S'outport'
p1610
I00
sS'quietval'
p1611
Nsg49
g50
sS'collapsed'
p1612
I00
sS'inport'
p1613
I00
sS'visible'
p1614
I01
sS'id'
p1615
I4682681848
ssa(dp1616
g41
S"<class 'gpi.widgets.PushButton'>"
p1617
sg43
S'Write Mode'
p1618
sg45
(dp1619
S'outport'
p1620
I00
sS'quietval'
p1621
Nsg49
I00
sS'collapsed'
p1622
I00
sS'inport'
p1623
I00
sS'visible'
p1624
I01
sS'toggle'
p1625
I01
sS'button_title'
p1626
VWrite on New Filename
p1627
sS'id'
p1628
I4682703080
ssa(dp1629
g41
S"<class 'gpi.widgets.PushButton'>"
p1630
sg43
S'Write Now'
p1631
sg45
(dp1632
S'outport'
p1633
I00
sS'quietval'
p1634
Nsg49
I00
sS'collapsed'
p1635
I00
sS'inport'
p1636
I00
sS'visible'
p1637
I01
sS'toggle'
p1638
I00
sS'button_title'
p1639
VWrite Right Now
p1640
sS'id'
p1641
I4682703840
ssasg81
g50
ssg82
S'None'
p1642
sg43
g734
sg85
(lp1643
F235.0
aF0.0
asg87
(lp1644
(dp1645
g90
g91
sg92
I0
sg93
(lp1646
(dp1647
g96
(dp1648
g98
g91
sg99
I4682704600
sg100
I0
sg101
I4682679416
ssg102
(dp1649
g98
g104
sg99
I4682872232
sg100
I0
sg101
I4682823840
ssasg105
Nsg106
I65540
sg107
I100
sg108
I4682704600
sasg109
S'None'
p1650
sg111
g743
sg108
I4682679416
sa(dp1651
g36
(dp1652
g38
(lp1653
(dp1654
g41
S"<class 'gpi.widgets.TextBox'>"
p1655
sg43
S'I/O Info:'
p1656
sg45
(dp1657
S'openExternalLinks'
p1658
I00
sS'outport'
p1659
I00
sS'quietval'
p1660
Nsg49
g50
sS'collapsed'
p1661
I00
sS'inport'
p1662
I00
sS'visible'
p1663
I01
sS'wordwrap'
p1664
I00
sS'id'
p1665
I4689852120
ssa(dp1666
g41
S"<class 'gpi.widgets.OpenFileBrowser'>"
p1667
sg43
S'File Browser'
p1668
sg45
(dp1669
S'outport'
p1670
I00
sS'quietval'
p1671
Nsg49
g50
sS'collapsed'
p1672
I00
sS'inport'
p1673
I00
sS'visible'
p1674
I01
sS'id'
p1675
I4689852576
ssasg81
g50
ssg82
S'0.107748508453'
p1676
sg43
S'ReadPickled'
p1677
sg85
(lp1678
F140.0
aF-90.0
asg87
(lp1679
(dp1680
g90
g104
sg92
I0
sg93
(lp1681
(dp1682
g96
(dp1683
g98
g91
sg99
I4689482568
sg100
I0
sg101
I4689461480
ssg102
(dp1684
g98
g104
sg99
I4689853184
sg100
I0
sg101
I4689833160
ssa(dp1685
g96
(dp1686
g98
g91
sg99
I4689659608
sg100
I0
sg101
I4689638520
ssg102
(dp1687
g98
g104
sg99
I4689853184
sg100
I0
sg101
I4689833160
ssa(dp1688
g96
(dp1689
g98
g91
sg99
I4689791592
sg100
I0
sg101
I4689777480
ssg102
(dp1690
g98
g104
sg99
I4689853184
sg100
I0
sg101
I4689833160
ssa(dp1691
g96
(dp1692
g98
g91
sg99
I4690011712
sg100
I0
sg101
I4689990624
ssg102
(dp1693
g98
g104
sg99
I4689853184
sg100
I0
sg101
I4689833160
ssa(dp1694
g96
(dp1695
g98
g91
sg99
I4690081496
sg100
I0
sg101
I4690052216
ssg102
(dp1696
g98
g104
sg99
I4689853184
sg100
I0
sg101
I4689833160
ssa(dp1697
g96
(dp1698
g98
g91
sg99
I4701046944
sg100
I0
sg101
I4690269760
ssg102
(dp1699
g98
g104
sg99
I4689853184
sg100
I0
sg101
I4689833160
ssasg105
Nsg106
I65541
sg107
Nsg108
I4689853184
sasg109
S'0.00941658020018'
p1700
sg111
S'core.fileIO.ReadPickled'
p1701
sg108
I4689833160
sg467
S'0.117165088654'
p1702
sa(dp1703
g36
(dp1704
g38
(lp1705
(dp1706
g41
S"<class 'gpi.widgets.SaveFileBrowser'>"
p1707
sg43
S'File Browser'
p1708
sg45
(dp1709
S'outport'
p1710
I00
sS'quietval'
p1711
Nsg49
g50
sS'collapsed'
p1712
I00
sS'inport'
p1713
I00
sS'visible'
p1714
I01
sS'id'
p1715
I4689286872
ssa(dp1716
g41
S"<class 'gpi.widgets.PushButton'>"
p1717
sg43
S'Write Mode'
p1718
sg45
(dp1719
S'outport'
p1720
I00
sS'quietval'
p1721
Nsg49
I00
sS'collapsed'
p1722
I00
sS'inport'
p1723
I00
sS'visible'
p1724
I01
sS'toggle'
p1725
I01
sS'button_title'
p1726
VWrite on New Filename
p1727
sS'id'
p1728
I4689287480
ssa(dp1729
g41
S"<class 'gpi.widgets.PushButton'>"
p1730
sg43
S'Write Now'
p1731
sg45
(dp1732
S'outport'
p1733
I00
sS'quietval'
p1734
Nsg49
I00
sS'collapsed'
p1735
I00
sS'inport'
p1736
I00
sS'visible'
p1737
I01
sS'toggle'
p1738
I00
sS'button_title'
p1739
VWrite Right Now
p1740
sS'id'
p1741
I4689288240
ssasg81
g50
ssg82
S'None'
p1742
sg43
g734
sg85
(lp1743
F45.0
aF-60.0
asg87
(lp1744
(dp1745
g90
g91
sg92
I0
sg93
(lp1746
(dp1747
g96
(dp1748
g98
g91
sg99
I4689289000
sg100
I0
sg101
I4689263816
ssg102
(dp1749
g98
g104
sg99
I4690046000
sg100
I0
sg101
I4690013688
ssasg105
Nsg106
I65540
sg107
I100
sg108
I4689289000
sasg109
S'None'
p1750
sg111
g743
sg108
I4689263816
sa(dp1751
g36
(dp1752
g38
(lp1753
(dp1754
g41
S"<class 'gpi.widgets.SaveFileBrowser'>"
p1755
sg43
S'File Browser'
p1756
sg45
(dp1757
S'outport'
p1758
I00
sS'quietval'
p1759
Nsg49
g50
sS'collapsed'
p1760
I00
sS'inport'
p1761
I00
sS'visible'
p1762
I01
sS'id'
p1763
I4690106528
ssa(dp1764
g41
S"<class 'gpi.widgets.StringBox'>"
p1765
sg43
S'set-name'
p1766
sg45
(dp1767
S'maskedval'
p1768
S'x\x9cK/\xc8LI,I\x04\x00\x0b\x81\x02\xdb'
p1769
sS'outport'
p1770
I00
sS'quietval'
p1771
Nsg49
S'gpidata'
p1772
sS'collapsed'
p1773
I00
sS'mask'
p1774
I00
sS'inport'
p1775
I00
sS'visible'
p1776
I01
sS'id'
p1777
I4690107136
ssa(dp1778
g41
S"<class 'gpi.widgets.PushButton'>"
p1779
sg43
S'compress (GZIP)'
p1780
sg45
(dp1781
S'outport'
p1782
I00
sS'quietval'
p1783
Nsg49
I00
sS'collapsed'
p1784
I00
sS'inport'
p1785
I00
sS'visible'
p1786
I01
sS'toggle'
p1787
I01
sS'button_title'
p1788
g199
sS'id'
p1789
I4690107592
ssa(dp1790
g41
S"<class 'gpi.widgets.PushButton'>"
p1791
sg43
S'Write Mode'
p1792
sg45
(dp1793
S'outport'
p1794
I00
sS'quietval'
p1795
Nsg49
I00
sS'collapsed'
p1796
I00
sS'inport'
p1797
I00
sS'visible'
p1798
I01
sS'toggle'
p1799
I01
sS'button_title'
p1800
VWrite on New Filename
p1801
sS'id'
p1802
I4690112592
ssa(dp1803
g41
S"<class 'gpi.widgets.PushButton'>"
p1804
sg43
S'Write Now'
p1805
sg45
(dp1806
S'outport'
p1807
I00
sS'quietval'
p1808
Nsg49
I00
sS'collapsed'
p1809
I00
sS'inport'
p1810
I00
sS'visible'
p1811
I01
sS'toggle'
p1812
I00
sS'button_title'
p1813
VWrite Right Now
p1814
sS'id'
p1815
I4690113352
ssasg81
g50
ssg82
S'None'
p1816
sg43
g228
sg85
(lp1817
F-140.0
aF-30.0
asg87
(lp1818
(dp1819
g90
g91
sg92
I0
sg93
(lp1820
(dp1821
g96
(dp1822
g98
g91
sg99
I4690114112
sg100
I0
sg101
I4690083472
ssg102
(dp1823
g98
g104
sg99
I4689889136
sg100
I0
sg101
I4689879880
ssasg105
Nsg106
I65540
sg107
I100
sg108
I4690114112
sasg109
S'None'
p1824
sg111
g237
sg108
I4690083472
sa(dp1825
g36
(dp1826
g38
(lp1827
(dp1828
g41
S"<class 'gpi.widgets.SaveFileBrowser'>"
p1829
sg43
S'File Browser'
p1830
sg45
(dp1831
S'outport'
p1832
I00
sS'quietval'
p1833
Nsg49
g50
sS'collapsed'
p1834
I00
sS'inport'
p1835
I00
sS'visible'
p1836
I01
sS'id'
p1837
I4701063784
ssa(dp1838
g41
S"<class 'gpi.widgets.PushButton'>"
p1839
sg43
S'Write Mode'
p1840
sg45
(dp1841
S'outport'
p1842
I00
sS'quietval'
p1843
Nsg49
I00
sS'collapsed'
p1844
I00
sS'inport'
p1845
I00
sS'visible'
p1846
I01
sS'toggle'
p1847
I01
sS'button_title'
p1848
VWrite on New Filename
p1849
sS'id'
p1850
I4701064392
ssa(dp1851
g41
S"<class 'gpi.widgets.PushButton'>"
p1852
sg43
S'Write Now'
p1853
sg45
(dp1854
S'outport'
p1855
I00
sS'quietval'
p1856
Nsg49
I00
sS'collapsed'
p1857
I00
sS'inport'
p1858
I00
sS'visible'
p1859
I01
sS'toggle'
p1860
I00
sS'button_title'
p1861
VWrite Right Now
p1862
sS'id'
p1863
I4701085776
ssasg81
g50
ssg82
S'None'
p1864
sg43
g509
sg85
(lp1865
F-235.0
aF-60.0
asg87
(lp1866
(dp1867
g90
g91
sg92
I0
sg93
(lp1868
(dp1869
g96
(dp1870
g98
g91
sg99
I4701086536
sg100
I0
sg101
I4701061352
ssg102
(dp1871
g98
g104
sg99
I4690267640
sg100
I0
sg101
I4690242760
ssasg105
Nsg106
I65540
sg107
I100
sg108
I4701086536
sasg109
S'None'
p1872
sg111
g518
sg108
I4701061352
sa(dp1873
g36
(dp1874
g38
(lp1875
(dp1876
g41
S"<class 'gpi.widgets.SaveFileBrowser'>"
p1877
sg43
S'File Browser'
p1878
sg45
(dp1879
S'outport'
p1880
I00
sS'quietval'
p1881
Nsg49
g50
sS'collapsed'
p1882
I00
sS'inport'
p1883
I00
sS'visible'
p1884
I01
sS'id'
p1885
I4701164968
ssa(dp1886
g41
S"<class 'gpi.widgets.PushButton'>"
p1887
sg43
S'Write Mode'
p1888
sg45
(dp1889
S'outport'
p1890
I00
sS'quietval'
p1891
Nsg49
I00
sS'collapsed'
p1892
I00
sS'inport'
p1893
I00
sS'visible'
p1894
I01
sS'toggle'
p1895
I01
sS'button_title'
p1896
VWrite on New Filename
p1897
sS'id'
p1898
I4701165576
ssa(dp1899
g41
S"<class 'gpi.widgets.PushButton'>"
p1900
sg43
S'Write Now'
p1901
sg45
(dp1902
S'outport'
p1903
I00
sS'quietval'
p1904
Nsg49
I00
sS'collapsed'
p1905
I00
sS'inport'
p1906
I00
sS'visible'
p1907
I01
sS'toggle'
p1908
I00
sS'button_title'
p1909
VWrite Right Now
p1910
sS'id'
p1911
I4701166336
ssasg81
g50
ssg82
S'None'
p1912
sg43
g684
sg85
(lp1913
F-140.0
aF60.0
asg87
(lp1914
(dp1915
g90
g91
sg92
I0
sg93
(lp1916
(dp1917
g96
(dp1918
g98
g91
sg99
I4701167096
sg100
I0
sg101
I4701146008
ssg102
(dp1919
g98
g104
sg99
I4689889136
sg100
I0
sg101
I4689879880
ssasg105
Nsg106
I65540
sg107
I100
sg108
I4701167096
sasg109
S'None'
p1920
sg111
g693
sg108
I4701146008
sa(dp1921
g36
(dp1922
g38
(lp1923
(dp1924
g41
S"<class 'gpi.widgets.SaveFileBrowser'>"
p1925
sg43
S'File Browser'
p1926
sg45
(dp1927
S'outport'
p1928
I00
sS'quietval'
p1929
Nsg49
g50
sS'collapsed'
p1930
I00
sS'inport'
p1931
I00
sS'visible'
p1932
I01
sS'id'
p1933
I4689440848
ssa(dp1934
g41
S"<class 'gpi.widgets.PushButton'>"
p1935
sg43
S'Write Mode'
p1936
sg45
(dp1937
S'outport'
p1938
I00
sS'quietval'
p1939
Nsg49
I00
sS'collapsed'
p1940
I00
sS'inport'
p1941
I00
sS'visible'
p1942
I01
sS'toggle'
p1943
I01
sS'button_title'
p1944
VWrite on New Filename
p1945
sS'id'
p1946
I4689441456
ssa(dp1947
g41
S"<class 'gpi.widgets.PushButton'>"
p1948
sg43
S'Write Now'
p1949
sg45
(dp1950
S'outport'
p1951
I00
sS'quietval'
p1952
Nsg49
I00
sS'collapsed'
p1953
I00
sS'inport'
p1954
I00
sS'visible'
p1955
I01
sS'toggle'
p1956
I00
sS'button_title'
p1957
VWrite Right Now
p1958
sS'id'
p1959
I4689442216
ssasg81
g50
ssg82
S'None'
p1960
sg43
g1013
sg85
(lp1961
F45.0
aF60.0
asg87
(lp1962
(dp1963
g90
g91
sg92
I0
sg93
(lp1964
(dp1965
g96
(dp1966
g98
g91
sg99
I4689442976
sg100
I0
sg101
I4689421888
ssg102
(dp1967
g98
g104
sg99
I4690046000
sg100
I0
sg101
I4690013688
ssasg105
Nsg106
I65540
sg107
I100
sg108
I4689442976
sasg109
S'None'
p1968
sg111
g1022
sg108
I4689421888
sa(dp1969
g36
(dp1970
g38
(lp1971
(dp1972
g41
S"<class 'gpi.widgets.SaveFileBrowser'>"
p1973
sg43
S'File Browser'
p1974
sg45
(dp1975
S'outport'
p1976
I00
sS'quietval'
p1977
Nsg49
g50
sS'collapsed'
p1978
I00
sS'inport'
p1979
I00
sS'visible'
p1980
I01
sS'id'
p1981
I4689522472
ssa(dp1982
g41
S"<class 'gpi.widgets.PushButton'>"
p1983
sg43
S'Write Mode'
p1984
sg45
(dp1985
S'outport'
p1986
I00
sS'quietval'
p1987
Nsg49
I00
sS'collapsed'
p1988
I00
sS'inport'
p1989
I00
sS'visible'
p1990
I01
sS'toggle'
p1991
I01
sS'button_title'
p1992
VWrite on New Filename
p1993
sS'id'
p1994
I4689535512
ssa(dp1995
g41
S"<class 'gpi.widgets.PushButton'>"
p1996
sg43
S'Write Now'
p1997
sg45
(dp1998
S'outport'
p1999
I00
sS'quietval'
p2000
Nsg49
I00
sS'collapsed'
p2001
I00
sS'inport'
p2002
I00
sS'visible'
p2003
I01
sS'toggle'
p2004
I00
sS'button_title'
p2005
VWrite Right Now
p2006
sS'id'
p2007
I4689536272
ssasg81
g50
ssg82
S'None'
p2008
sg43
g734
sg85
(lp2009
F-140.0
aF-60.0
asg87
(lp2010
(dp2011
g90
g91
sg92
I0
sg93
(lp2012
(dp2013
g96
(dp2014
g98
g91
sg99
I4689537032
sg100
I0
sg101
I4689520040
ssg102
(dp2015
g98
g104
sg99
I4689889136
sg100
I0
sg101
I4689879880
ssasg105
Nsg106
I65540
sg107
I100
sg108
I4689537032
sasg109
S'None'
p2016
sg111
g743
sg108
I4689520040
sa(dp2017
g36
(dp2018
g38
(lp2019
(dp2020
g41
S"<class 'gpi.widgets.SaveFileBrowser'>"
p2021
sg43
S'File Browser'
p2022
sg45
(dp2023
S'outport'
p2024
I00
sS'quietval'
p2025
Nsg49
g50
sS'collapsed'
p2026
I00
sS'inport'
p2027
I00
sS'visible'
p2028
I01
sS'id'
p2029
I4689725448
ssa(dp2030
g41
S"<class 'gpi.widgets.PushButton'>"
p2031
sg43
S'Write Mode'
p2032
sg45
(dp2033
S'outport'
p2034
I00
sS'quietval'
p2035
Nsg49
I00
sS'collapsed'
p2036
I00
sS'inport'
p2037
I00
sS'visible'
p2038
I01
sS'toggle'
p2039
I01
sS'button_title'
p2040
VWrite on New Filename
p2041
sS'id'
p2042
I4689726056
ssa(dp2043
g41
S"<class 'gpi.widgets.PushButton'>"
p2044
sg43
S'Write Now'
p2045
sg45
(dp2046
S'outport'
p2047
I00
sS'quietval'
p2048
Nsg49
I00
sS'collapsed'
p2049
I00
sS'inport'
p2050
I00
sS'visible'
p2051
I01
sS'toggle'
p2052
I00
sS'button_title'
p2053
VWrite Right Now
p2054
sS'id'
p2055
I4689726816
ssasg81
g50
ssg82
S'None'
p2056
sg43
g684
sg85
(lp2057
F45.0
aF30.0
asg87
(lp2058
(dp2059
g90
g91
sg92
I0
sg93
(lp2060
(dp2061
g96
(dp2062
g98
g91
sg99
I4689727720
sg100
I0
sg101
I4689702392
ssg102
(dp2063
g98
g104
sg99
I4690046000
sg100
I0
sg101
I4690013688
ssasg105
Nsg106
I65540
sg107
I100
sg108
I4689727720
sasg109
S'None'
p2064
sg111
g693
sg108
I4689702392
sa(dp2065
g36
(dp2066
g38
(lp2067
(dp2068
g41
S"<class 'gpi.widgets.SaveFileBrowser'>"
p2069
sg43
S'File Browser'
p2070
sg45
(dp2071
S'outport'
p2072
I00
sS'quietval'
p2073
Nsg49
g50
sS'collapsed'
p2074
I00
sS'inport'
p2075
I00
sS'visible'
p2076
I01
sS'id'
p2077
I4690226224
ssa(dp2078
g41
S"<class 'gpi.widgets.PushButton'>"
p2079
sg43
S'Write Mode'
p2080
sg45
(dp2081
S'outport'
p2082
I00
sS'quietval'
p2083
Nsg49
I00
sS'collapsed'
p2084
I00
sS'inport'
p2085
I00
sS'visible'
p2086
I01
sS'toggle'
p2087
I01
sS'button_title'
p2088
VWrite on New Filename
p2089
sS'id'
p2090
I4690226832
ssa(dp2091
g41
S"<class 'gpi.widgets.PushButton'>"
p2092
sg43
S'Write Now'
p2093
sg45
(dp2094
S'outport'
p2095
I00
sS'quietval'
p2096
Nsg49
I00
sS'collapsed'
p2097
I00
sS'inport'
p2098
I00
sS'visible'
p2099
I01
sS'toggle'
p2100
I00
sS'button_title'
p2101
VWrite Right Now
p2102
sS'id'
p2103
I4690240024
ssasg81
g50
ssg82
S'None'
p2104
sg43
g84
sg85
(lp2105
F235.0
aF30.0
asg87
(lp2106
(dp2107
g90
g91
sg92
I0
sg93
(lp2108
(dp2109
g96
(dp2110
g98
g91
sg99
I4690240784
sg100
I0
sg101
I4690223792
ssg102
(dp2111
g98
g104
sg99
I4682872232
sg100
I0
sg101
I4682823840
ssasg105
Nsg106
I65540
sg107
I100
sg108
I4690240784
sasg109
S'None'
p2112
sg111
g112
sg108
I4690223792
sa(dp2113
g36
(dp2114
g38
(lp2115
(dp2116
g41
S"<class 'gpi.widgets.SaveFileBrowser'>"
p2117
sg43
S'File Browser'
p2118
sg45
(dp2119
S'outport'
p2120
I00
sS'quietval'
p2121
Nsg49
g50
sS'collapsed'
p2122
I00
sS'inport'
p2123
I00
sS'visible'
p2124
I01
sS'id'
p2125
I4682473552
ssa(dp2126
g41
S"<class 'gpi.widgets.PushButton'>"
p2127
sg43
S'Write Mode'
p2128
sg45
(dp2129
S'outport'
p2130
I00
sS'quietval'
p2131
Nsg49
I00
sS'collapsed'
p2132
I00
sS'inport'
p2133
I00
sS'visible'
p2134
I01
sS'toggle'
p2135
I01
sS'button_title'
p2136
VWrite on New Filename
p2137
sS'id'
p2138
I4682474160
ssa(dp2139
g41
S"<class 'gpi.widgets.PushButton'>"
p2140
sg43
S'Write Now'
p2141
sg45
(dp2142
S'outport'
p2143
I00
sS'quietval'
p2144
Nsg49
I00
sS'collapsed'
p2145
I00
sS'inport'
p2146
I00
sS'visible'
p2147
I01
sS'toggle'
p2148
I00
sS'button_title'
p2149
VWrite Right Now
p2150
sS'id'
p2151
I4682474920
ssasg81
g50
ssg82
S'None'
p2152
sg43
g1013
sg85
(lp2153
F-235.0
aF-30.0
asg87
(lp2154
(dp2155
g90
g91
sg92
I0
sg93
(lp2156
(dp2157
g96
(dp2158
g98
g91
sg99
I4682475680
sg100
I0
sg101
I4682438208
ssg102
(dp2159
g98
g104
sg99
I4690267640
sg100
I0
sg101
I4690242760
ssasg105
Nsg106
I65540
sg107
I100
sg108
I4682475680
sasg109
S'None'
p2160
sg111
g1022
sg108
I4682438208
sa(dp2161
g36
(dp2162
g38
(lp2163
(dp2164
g41
S"<class 'gpi.widgets.SaveFileBrowser'>"
p2165
sg43
S'File Browser'
p2166
sg45
(dp2167
S'outport'
p2168
I00
sS'quietval'
p2169
Nsg49
g50
sS'collapsed'
p2170
I00
sS'inport'
p2171
I00
sS'visible'
p2172
I01
sS'id'
p2173
I4689684640
ssa(dp2174
g41
S"<class 'gpi.widgets.StringBox'>"
p2175
sg43
S'set-name'
p2176
sg45
(dp2177
S'maskedval'
p2178
S'x\x9cK/\xc8LI,I\x04\x00\x0b\x81\x02\xdb'
p2179
sS'outport'
p2180
I00
sS'quietval'
p2181
Nsg49
S'gpidata'
p2182
sS'collapsed'
p2183
I00
sS'mask'
p2184
I00
sS'inport'
p2185
I00
sS'visible'
p2186
I01
sS'id'
p2187
I4689685248
ssa(dp2188
g41
S"<class 'gpi.widgets.PushButton'>"
p2189
sg43
S'compress (GZIP)'
p2190
sg45
(dp2191
S'outport'
p2192
I00
sS'quietval'
p2193
Nsg49
I00
sS'collapsed'
p2194
I00
sS'inport'
p2195
I00
sS'visible'
p2196
I01
sS'toggle'
p2197
I01
sS'button_title'
p2198
g199
sS'id'
p2199
I4689685704
ssa(dp2200
g41
S"<class 'gpi.widgets.PushButton'>"
p2201
sg43
S'Write Mode'
p2202
sg45
(dp2203
S'outport'
p2204
I00
sS'quietval'
p2205
Nsg49
I00
sS'collapsed'
p2206
I00
sS'inport'
p2207
I00
sS'visible'
p2208
I01
sS'toggle'
p2209
I01
sS'button_title'
p2210
VWrite on New Filename
p2211
sS'id'
p2212
I4689698896
ssa(dp2213
g41
S"<class 'gpi.widgets.PushButton'>"
p2214
sg43
S'Write Now'
p2215
sg45
(dp2216
S'outport'
p2217
I00
sS'quietval'
p2218
Nsg49
I00
sS'collapsed'
p2219
I00
sS'inport'
p2220
I00
sS'visible'
p2221
I01
sS'toggle'
p2222
I00
sS'button_title'
p2223
VWrite Right Now
p2224
sS'id'
p2225
I4689699656
ssasg81
g50
ssg82
S'None'
p2226
sg43
g228
sg85
(lp2227
F45.0
aF0.0
asg87
(lp2228
(dp2229
g90
g91
sg92
I0
sg93
(lp2230
(dp2231
g96
(dp2232
g98
g91
sg99
I4689700416
sg100
I0
sg101
I4689661584
ssg102
(dp2233
g98
g104
sg99
I4690046000
sg100
I0
sg101
I4690013688
ssasg105
Nsg106
I65540
sg107
I100
sg108
I4689700416
sasg109
S'None'
p2234
sg111
g237
sg108
I4689661584
sa(dp2235
g36
(dp2236
g38
(lp2237
(dp2238
g41
S"<class 'gpi.widgets.SaveFileBrowser'>"
p2239
sg43
S'File Browser'
p2240
sg45
(dp2241
S'outport'
p2242
I00
sS'quietval'
p2243
Nsg49
g50
sS'collapsed'
p2244
I00
sS'inport'
p2245
I00
sS'visible'
p2246
I01
sS'id'
p2247
I4689412328
ssa(dp2248
g41
S"<class 'gpi.widgets.StringBox'>"
p2249
sg43
S'set-name'
p2250
sg45
(dp2251
S'maskedval'
p2252
S'x\x9cK/\xc8LI,I\x04\x00\x0b\x81\x02\xdb'
p2253
sS'outport'
p2254
I00
sS'quietval'
p2255
Nsg49
S'gpidata'
p2256
sS'collapsed'
p2257
I00
sS'mask'
p2258
I00
sS'inport'
p2259
I00
sS'visible'
p2260
I01
sS'id'
p2261
I4689412936
ssa(dp2262
g41
S"<class 'gpi.widgets.PushButton'>"
p2263
sg43
S'compress (GZIP)'
p2264
sg45
(dp2265
S'outport'
p2266
I00
sS'quietval'
p2267
Nsg49
I00
sS'collapsed'
p2268
I00
sS'inport'
p2269
I00
sS'visible'
p2270
I01
sS'toggle'
p2271
I01
sS'button_title'
p2272
g199
sS'id'
p2273
I4689413392
ssa(dp2274
g41
S"<class 'gpi.widgets.PushButton'>"
p2275
sg43
S'Write Mode'
p2276
sg45
(dp2277
S'outport'
p2278
I00
sS'quietval'
p2279
Nsg49
I00
sS'collapsed'
p2280
I00
sS'inport'
p2281
I00
sS'visible'
p2282
I01
sS'toggle'
p2283
I01
sS'button_title'
p2284
VWrite on New Filename
p2285
sS'id'
p2286
I4689414152
ssa(dp2287
g41
S"<class 'gpi.widgets.PushButton'>"
p2288
sg43
S'Write Now'
p2289
sg45
(dp2290
S'outport'
p2291
I00
sS'quietval'
p2292
Nsg49
I00
sS'collapsed'
p2293
I00
sS'inport'
p2294
I00
sS'visible'
p2295
I01
sS'toggle'
p2296
I00
sS'button_title'
p2297
VWrite Right Now
p2298
sS'id'
p2299
I4689414912
ssasg81
g50
ssg82
S'None'
p2300
sg43
g228
sg85
(lp2301
F-235.0
aF0.0
asg87
(lp2302
(dp2303
g90
g91
sg92
I0
sg93
(lp2304
(dp2305
g96
(dp2306
g98
g91
sg99
I4689415672
sg100
I0
sg101
I4689385176
ssg102
(dp2307
g98
g104
sg99
I4690267640
sg100
I0
sg101
I4690242760
ssasg105
Nsg106
I65540
sg107
I100
sg108
I4689415672
sasg109
S'None'
p2308
sg111
g237
sg108
I4689385176
sa(dp2309
g36
(dp2310
g38
(lp2311
(dp2312
g41
S"<class 'gpi.widgets.SaveFileBrowser'>"
p2313
sg43
S'File Browser'
p2314
sg45
(dp2315
S'outport'
p2316
I00
sS'quietval'
p2317
Nsg49
g50
sS'collapsed'
p2318
I00
sS'inport'
p2319
I00
sS'visible'
p2320
I01
sS'id'
p2321
I4689922360
ssa(dp2322
g41
S"<class 'gpi.widgets.PushButton'>"
p2323
sg43
S'Write Mode'
p2324
sg45
(dp2325
S'outport'
p2326
I00
sS'quietval'
p2327
Nsg49
I00
sS'collapsed'
p2328
I00
sS'inport'
p2329
I00
sS'visible'
p2330
I01
sS'toggle'
p2331
I01
sS'button_title'
p2332
VWrite on New Filename
p2333
sS'id'
p2334
I4689922968
ssa(dp2335
g41
S"<class 'gpi.widgets.PushButton'>"
p2336
sg43
S'Write Now'
p2337
sg45
(dp2338
S'outport'
p2339
I00
sS'quietval'
p2340
Nsg49
I00
sS'collapsed'
p2341
I00
sS'inport'
p2342
I00
sS'visible'
p2343
I01
sS'toggle'
p2344
I00
sS'button_title'
p2345
VWrite Right Now
p2346
sS'id'
p2347
I4689923728
ssasg81
g50
ssg82
S'None'
p2348
sg43
g734
sg85
(lp2349
F-45.0
aF-60.0
asg87
(lp2350
(dp2351
g90
g91
sg92
I0
sg93
(lp2352
(dp2353
g96
(dp2354
g98
g91
sg99
I4689924632
sg100
I0
sg101
I4689891112
ssg102
(dp2355
g98
g104
sg99
I4682506776
sg100
I0
sg101
I4682498584
ssasg105
Nsg106
I65540
sg107
I100
sg108
I4689924632
sasg109
S'None'
p2356
sg111
g743
sg108
I4689891112
sa(dp2357
g36
(dp2358
g38
(lp2359
(dp2360
g41
S"<class 'gpi.widgets.SaveFileBrowser'>"
p2361
sg43
S'File Browser'
p2362
sg45
(dp2363
S'outport'
p2364
I00
sS'quietval'
p2365
Nsg49
g50
sS'collapsed'
p2366
I00
sS'inport'
p2367
I00
sS'visible'
p2368
I01
sS'id'
p2369
I4689982280
ssa(dp2370
g41
S"<class 'gpi.widgets.PushButton'>"
p2371
sg43
S'Write Mode'
p2372
sg45
(dp2373
S'outport'
p2374
I00
sS'quietval'
p2375
Nsg49
I00
sS'collapsed'
p2376
I00
sS'inport'
p2377
I00
sS'visible'
p2378
I01
sS'toggle'
p2379
I01
sS'button_title'
p2380
VWrite on New Filename
p2381
sS'id'
p2382
I4689982888
ssa(dp2383
g41
S"<class 'gpi.widgets.PushButton'>"
p2384
sg43
S'Write Now'
p2385
sg45
(dp2386
S'outport'
p2387
I00
sS'quietval'
p2388
Nsg49
I00
sS'collapsed'
p2389
I00
sS'inport'
p2390
I00
sS'visible'
p2391
I01
sS'toggle'
p2392
I00
sS'button_title'
p2393
VWrite Right Now
p2394
sS'id'
p2395
I4689983648
ssasg81
g50
ssg82
S'None'
p2396
sg43
g509
sg85
(lp2397
F235.0
aF-60.0
asg87
(lp2398
(dp2399
g90
g91
sg92
I0
sg93
(lp2400
(dp2401
g96
(dp2402
g98
g91
sg99
I4689984408
sg100
I0
sg101
I4689959224
ssg102
(dp2403
g98
g104
sg99
I4682872232
sg100
I0
sg101
I4682823840
ssasg105
Nsg106
I65540
sg107
I100
sg108
I4689984408
sasg109
S'None'
p2404
sg111
g518
sg108
I4689959224
sa(dp2405
g36
(dp2406
g38
(lp2407
(dp2408
g41
S"<class 'gpi.widgets.SaveFileBrowser'>"
p2409
sg43
S'File Browser'
p2410
sg45
(dp2411
S'outport'
p2412
I00
sS'quietval'
p2413
Nsg49
g50
sS'collapsed'
p2414
I00
sS'inport'
p2415
I00
sS'visible'
p2416
I01
sS'id'
p2417
I4689993056
ssa(dp2418
g41
S"<class 'gpi.widgets.PushButton'>"
p2419
sg43
S'Write Mode'
p2420
sg45
(dp2421
S'outport'
p2422
I00
sS'quietval'
p2423
Nsg49
I00
sS'collapsed'
p2424
I00
sS'inport'
p2425
I00
sS'visible'
p2426
I01
sS'toggle'
p2427
I01
sS'button_title'
p2428
VWrite on New Filename
p2429
sS'id'
p2430
I4690010192
ssa(dp2431
g41
S"<class 'gpi.widgets.PushButton'>"
p2432
sg43
S'Write Now'
p2433
sg45
(dp2434
S'outport'
p2435
I00
sS'quietval'
p2436
Nsg49
I00
sS'collapsed'
p2437
I00
sS'inport'
p2438
I00
sS'visible'
p2439
I01
sS'toggle'
p2440
I00
sS'button_title'
p2441
VWrite Right Now
p2442
sS'id'
p2443
I4690010952
ssasg81
g50
ssg82
S'None'
p2444
sg43
g684
sg85
(lp2445
F140.0
aF60.0
asg87
(lp2446
(dp2447
g90
g91
sg92
I0
sg93
(lp2448
(dp2449
g96
(dp2450
g98
g91
sg99
I4690011712
sg100
I0
sg101
I4689990624
ssg102
(dp2451
g98
g104
sg99
I4689853184
sg100
I0
sg101
I4689833160
ssasg105
Nsg106
I65540
sg107
I100
sg108
I4690011712
sasg109
S'None'
p2452
sg111
g693
sg108
I4689990624
sa(dp2453
g36
(dp2454
g38
(lp2455
(dp2456
g41
S"<class 'gpi.widgets.SaveFileBrowser'>"
p2457
sg43
S'File Browser'
p2458
sg45
(dp2459
S'outport'
p2460
I00
sS'quietval'
p2461
Nsg49
g50
sS'collapsed'
p2462
I00
sS'inport'
p2463
I00
sS'visible'
p2464
I01
sS'id'
p2465
I4689322368
ssa(dp2466
g41
S"<class 'gpi.widgets.PushButton'>"
p2467
sg43
S'Write Mode'
p2468
sg45
(dp2469
S'outport'
p2470
I00
sS'quietval'
p2471
Nsg49
I00
sS'collapsed'
p2472
I00
sS'inport'
p2473
I00
sS'visible'
p2474
I01
sS'toggle'
p2475
I01
sS'button_title'
p2476
VWrite on New Filename
p2477
sS'id'
p2478
I4689322976
ssa(dp2479
g41
S"<class 'gpi.widgets.PushButton'>"
p2480
sg43
S'Write Now'
p2481
sg45
(dp2482
S'outport'
p2483
I00
sS'quietval'
p2484
Nsg49
I00
sS'collapsed'
p2485
I00
sS'inport'
p2486
I00
sS'visible'
p2487
I01
sS'toggle'
p2488
I00
sS'button_title'
p2489
VWrite Right Now
p2490
sS'id'
p2491
I4689323736
ssasg81
g50
ssg82
S'None'
p2492
sg43
g1013
sg85
(lp2493
F235.0
aF-30.0
asg87
(lp2494
(dp2495
g90
g91
sg92
I0
sg93
(lp2496
(dp2497
g96
(dp2498
g98
g91
sg99
I4689324496
sg100
I0
sg101
I4689299312
ssg102
(dp2499
g98
g104
sg99
I4682872232
sg100
I0
sg101
I4682823840
ssasg105
Nsg106
I65540
sg107
I100
sg108
I4689324496
sasg109
S'None'
p2500
sg111
g1022
sg108
I4689299312
sassS'WALLTIME'
p2501
S'0.000782012939453'
p2502
s.