(dp0
S'HEADER'
p1
S'This is a GPI Network File'
p2
sS'GPI_VERSION'
p3
S'0.2.0-n1-dev'
p4
sS'PLATFORM'
p5
(dp6
S'OSX'
p7
S'10.10.1'
p8
sS'PYTHON_VERSION'
p9
S'2.7.6'
p10
sS'PYTHON'
p11
S'CPython'
p12
sS'TOTAL_PHYMEM'
p13
L17179869184L
sS'NUM_CPUS'
p14
I8
sS'HOSTNAME'
p15
S'tron.local'
p16
sg5
S'Darwin-14.0.0-x86_64-i386-64bit'
p17
sS'TOTAL_PHYMEM_STR'
p18
S'16.00 GB'
p19
sS'OS'
p20
S'Darwin'
p21
ssS'DATETIME'
p22
S'Sun Feb  8 17:33:22 2015'
p23
sS'NETWORK_VERSION'
p24
S'2'
p25
sS'layouts'
p26
(lp27
sS'TOTAL_PMEM'
p28
S'58674208'
p29
sS'nodes'
p30
(dp31
S'macroNodes'
p32
(lp33
(dp34
S'collapse'
p35
I01
sS'sink_settings'
p36
(dp37
S'widget_settings'
p38
(dp39
S'parms'
p40
(lp41
sS'label'
p42
S''
p43
ssS'avgwalltime'
p44
S'0.000908136367798'
p45
sS'name'
p46
S'__GPIMacroNode__'
p47
sS'pos'
p48
(lp49
F-40.1441802866791
aF-20.128040050817248
asS'id'
p50
I4368984224
sS'stdwalltime'
p51
S'0.0'
p52
sS'ports'
p53
(lp54
(dp55
S'connections'
p56
(lp57
(dp58
S'dest'
p59
(dp60
S'portName'
p61
S'in1'
p62
sS'portNum'
p63
I0
sS'portID'
p64
I4685482448
sS'nodeID'
p65
I4368984224
ssS'src'
p66
(dp67
g61
S'out'
p68
sg63
I0
sg64
I4499200768
sg65
I4499132800
ssasS'portnum'
p69
I0
sS'porttitle'
p70
g62
sS'widgetTitle'
p71
NsS'porttype'
p72
I65540
sS'obligation'
p73
I200
sg50
I4685482448
sa(dp74
g56
(lp75
sg69
I1
sg70
S'in2'
p76
sg71
Nsg72
I65540
sg73
I200
sg50
I4685482752
sa(dp77
g56
(lp78
sg69
I2
sg70
S'in3'
p79
sg71
Nsg72
I65540
sg73
I200
sg50
I4685483056
sa(dp80
g56
(lp81
sg69
I3
sg70
S'in4'
p82
sg71
Nsg72
I65540
sg73
I200
sg50
I4685483360
sa(dp83
g56
(lp84
sg69
I4
sg70
S'in5'
p85
sg71
Nsg72
I65540
sg73
I200
sg50
I4685483664
sa(dp86
g56
(lp87
sg69
I5
sg70
S'in6'
p88
sg71
Nsg72
I65540
sg73
I200
sg50
I4685504592
sa(dp89
g56
(lp90
sg69
I6
sg70
S'in7'
p91
sg71
Nsg72
I65540
sg73
I200
sg50
I4685504896
sa(dp92
g56
(lp93
sg69
I7
sg70
S'in8'
p94
sg71
Nsg72
I65540
sg73
I200
sg50
I4685505200
sa(dp95
g56
(lp96
sg69
I8
sg70
S'in9'
p97
sg71
Nsg72
I65540
sg73
I200
sg50
I4685505504
sa(dp98
g56
(lp99
sg69
I9
sg70
S'in10'
p100
sg71
Nsg72
I65540
sg73
I200
sg50
I4685505808
sa(dp101
g56
(lp102
sg69
I10
sg70
S'in11'
p103
sg71
Nsg72
I65540
sg73
I200
sg50
I4685506112
sa(dp104
g56
(lp105
sg69
I11
sg70
S'in12'
p106
sg71
Nsg72
I65540
sg73
I200
sg50
I4685506416
sa(dp107
g56
(lp108
sg69
I12
sg70
S'in13'
p109
sg71
Nsg72
I65540
sg73
I200
sg50
I4685506720
sa(dp110
g56
(lp111
sg69
I13
sg70
S'in14'
p112
sg71
Nsg72
I65540
sg73
I200
sg50
I4685507024
sa(dp113
g56
(lp114
sg69
I14
sg70
S'in15'
p115
sg71
Nsg72
I65540
sg73
I200
sg50
I4685507328
sa(dp116
g56
(lp117
sg69
I15
sg70
S'in16'
p118
sg71
Nsg72
I65540
sg73
I200
sg50
I4685507632
sa(dp119
g56
(lp120
(dp121
g59
(dp122
g61
S'in'
p123
sg63
I0
sg64
I4794586992
sg65
I4788258824
ssg66
(dp124
g61
S'out1'
p125
sg63
I0
sg64
I4685482600
sg65
I4368984224
ssasg69
I0
sg70
g125
sg71
Nsg72
I65541
sg73
Nsg50
I4685482600
sa(dp126
g56
(lp127
sg69
I1
sg70
S'out2'
p128
sg71
Nsg72
I65541
sg73
Nsg50
I4685482904
sa(dp129
g56
(lp130
sg69
I2
sg70
S'out3'
p131
sg71
Nsg72
I65541
sg73
Nsg50
I4685483208
sa(dp132
g56
(lp133
sg69
I3
sg70
S'out4'
p134
sg71
Nsg72
I65541
sg73
Nsg50
I4685483512
sa(dp135
g56
(lp136
sg69
I4
sg70
S'out5'
p137
sg71
Nsg72
I65541
sg73
Nsg50
I4685483816
sa(dp138
g56
(lp139
sg69
I5
sg70
S'out6'
p140
sg71
Nsg72
I65541
sg73
Nsg50
I4685504744
sa(dp141
g56
(lp142
sg69
I6
sg70
S'out7'
p143
sg71
Nsg72
I65541
sg73
Nsg50
I4685505048
sa(dp144
g56
(lp145
sg69
I7
sg70
S'out8'
p146
sg71
Nsg72
I65541
sg73
Nsg50
I4685505352
sa(dp147
g56
(lp148
sg69
I8
sg70
S'out9'
p149
sg71
Nsg72
I65541
sg73
Nsg50
I4685505656
sa(dp150
g56
(lp151
sg69
I9
sg70
S'out10'
p152
sg71
Nsg72
I65541
sg73
Nsg50
I4685505960
sa(dp153
g56
(lp154
sg69
I10
sg70
S'out11'
p155
sg71
Nsg72
I65541
sg73
Nsg50
I4685506264
sa(dp156
g56
(lp157
sg69
I11
sg70
S'out12'
p158
sg71
Nsg72
I65541
sg73
Nsg50
I4685506568
sa(dp159
g56
(lp160
sg69
I12
sg70
S'out13'
p161
sg71
Nsg72
I65541
sg73
Nsg50
I4685506872
sa(dp162
g56
(lp163
sg69
I13
sg70
S'out14'
p164
sg71
Nsg72
I65541
sg73
Nsg50
I4685507176
sa(dp165
g56
(lp166
sg69
I14
sg70
S'out15'
p167
sg71
Nsg72
I65541
sg73
Nsg50
I4685507480
sa(dp168
g56
(lp169
sg69
I15
sg70
S'out16'
p170
sg71
Nsg72
I65541
sg73
Nsg50
I4685507784
sasS'walltime'
p171
S'0.000908136367798'
p172
ssg42
S'Coil Images'
p173
sS'nodes_rel_pos'
p174
(dp175
S'4730906480'
p176
(lp177
F38.122503567193235
aF130.9616209434796
asS'4499132800'
p178
(lp179
F38.122503567193235
aF160.9616209434796
asS'4730905872'
p180
(lp181
F38.122503567193235
aF100.9616209434796
asS'4499201680'
p182
(lp183
F38.122503567193235
aF70.9616209434796
asS'4499200616'
p184
(lp185
F38.122503567193235
aF40.9616209434796
assS'layoutWindow'
p186
(dp187
g26
(dp188
S'top'
p189
(dp190
S'layoutType'
p191
S'vbox'
p192
sS'wdgids'
p193
(lp194
I4368847080
asg42
g189
sssS'config'
p195
I0
ssS'face_settings'
p196
(dp197
g38
(dp198
g40
(lp199
sg42
g43
ssg44
S'2.78949737549e-05'
p200
sg46
g47
sg48
(lp201
F43.22023087139286
aF-6.107661810596085
asg50
I4685507936
sg51
S'0.0'
p202
sg53
(lp203
(dp204
g56
(lp205
(dp206
g59
(dp207
g61
g123
sg63
I0
sg64
I4794586992
sg65
I4788258824
ssg66
(dp208
g61
g125
sg63
I0
sg64
I4685482600
sg65
I4368984224
ssasg69
I0
sg70
g125
sg71
Nsg72
I65541
sg73
Nsg50
I4685482600
sasg171
S'2.78949737549e-05'
p209
ssS'rel_jaw_pos'
p210
(lp211
F-13.77803164309148
aF213.13057991838275
asg50
I4794135120
sS'src_settings'
p212
(dp213
g38
(dp214
g40
(lp215
sg42
g43
ssg44
S'0.000614881515503'
p216
sg46
g47
sg48
(lp217
F-40.1441802866791
aF-20.128040050817248
asg50
I4368868320
sg51
S'0.0'
p218
sg53
(lp219
(dp220
g56
(lp221
sg69
I0
sg70
S'in1'
p222
sg71
Nsg72
I65540
sg73
I200
sg50
I4368856336
sa(dp223
g56
(lp224
sg69
I1
sg70
S'in2'
p225
sg71
Nsg72
I65540
sg73
I200
sg50
I4368856640
sa(dp226
g56
(lp227
sg69
I2
sg70
S'in3'
p228
sg71
Nsg72
I65540
sg73
I200
sg50
I4368856944
sa(dp229
g56
(lp230
sg69
I3
sg70
S'in4'
p231
sg71
Nsg72
I65540
sg73
I200
sg50
I4368857248
sa(dp232
g56
(lp233
sg69
I4
sg70
S'in5'
p234
sg71
Nsg72
I65540
sg73
I200
sg50
I4368857552
sa(dp235
g56
(lp236
sg69
I5
sg70
S'in6'
p237
sg71
Nsg72
I65540
sg73
I200
sg50
I4368857856
sa(dp238
g56
(lp239
sg69
I6
sg70
S'in7'
p240
sg71
Nsg72
I65540
sg73
I200
sg50
I4368858160
sa(dp241
g56
(lp242
sg69
I7
sg70
S'in8'
p243
sg71
Nsg72
I65540
sg73
I200
sg50
I4368858464
sa(dp244
g56
(lp245
sg69
I8
sg70
S'in9'
p246
sg71
Nsg72
I65540
sg73
I200
sg50
I4368858768
sa(dp247
g56
(lp248
sg69
I9
sg70
S'in10'
p249
sg71
Nsg72
I65540
sg73
I200
sg50
I4368982096
sa(dp250
g56
(lp251
sg69
I10
sg70
S'in11'
p252
sg71
Nsg72
I65540
sg73
I200
sg50
I4368982400
sa(dp253
g56
(lp254
sg69
I11
sg70
S'in12'
p255
sg71
Nsg72
I65540
sg73
I200
sg50
I4368982704
sa(dp256
g56
(lp257
sg69
I12
sg70
S'in13'
p258
sg71
Nsg72
I65540
sg73
I200
sg50
I4368983008
sa(dp259
g56
(lp260
sg69
I13
sg70
S'in14'
p261
sg71
Nsg72
I65540
sg73
I200
sg50
I4368983312
sa(dp262
g56
(lp263
sg69
I14
sg70
S'in15'
p264
sg71
Nsg72
I65540
sg73
I200
sg50
I4368983616
sa(dp265
g56
(lp266
sg69
I15
sg70
S'in16'
p267
sg71
Nsg72
I65540
sg73
I200
sg50
I4368983920
sa(dp268
g56
(lp269
sg69
I0
sg70
S'out1'
p270
sg71
Nsg72
I65541
sg73
Nsg50
I4368856488
sa(dp271
g56
(lp272
sg69
I1
sg70
S'out2'
p273
sg71
Nsg72
I65541
sg73
Nsg50
I4368856792
sa(dp274
g56
(lp275
sg69
I2
sg70
S'out3'
p276
sg71
Nsg72
I65541
sg73
Nsg50
I4368857096
sa(dp277
g56
(lp278
sg69
I3
sg70
S'out4'
p279
sg71
Nsg72
I65541
sg73
Nsg50
I4368857400
sa(dp280
g56
(lp281
sg69
I4
sg70
S'out5'
p282
sg71
Nsg72
I65541
sg73
Nsg50
I4368857704
sa(dp283
g56
(lp284
sg69
I5
sg70
S'out6'
p285
sg71
Nsg72
I65541
sg73
Nsg50
I4368858008
sa(dp286
g56
(lp287
sg69
I6
sg70
S'out7'
p288
sg71
Nsg72
I65541
sg73
Nsg50
I4368858312
sa(dp289
g56
(lp290
sg69
I7
sg70
S'out8'
p291
sg71
Nsg72
I65541
sg73
Nsg50
I4368858616
sa(dp292
g56
(lp293
sg69
I8
sg70
S'out9'
p294
sg71
Nsg72
I65541
sg73
Nsg50
I4368858920
sa(dp295
g56
(lp296
sg69
I9
sg70
S'out10'
p297
sg71
Nsg72
I65541
sg73
Nsg50
I4368982248
sa(dp298
g56
(lp299
sg69
I10
sg70
S'out11'
p300
sg71
Nsg72
I65541
sg73
Nsg50
I4368982552
sa(dp301
g56
(lp302
sg69
I11
sg70
S'out12'
p303
sg71
Nsg72
I65541
sg73
Nsg50
I4368982856
sa(dp304
g56
(lp305
sg69
I12
sg70
S'out13'
p306
sg71
Nsg72
I65541
sg73
Nsg50
I4368983160
sa(dp307
g56
(lp308
sg69
I13
sg70
S'out14'
p309
sg71
Nsg72
I65541
sg73
Nsg50
I4368983464
sa(dp310
g56
(lp311
sg69
I14
sg70
S'out15'
p312
sg71
Nsg72
I65541
sg73
Nsg50
I4368983768
sa(dp313
g56
(lp314
sg69
I15
sg70
S'out16'
p315
sg71
Nsg72
I65541
sg73
Nsg50
I4368984072
sasg171
S'0.000614881515503'
p316
ssasg30
(lp317
(dp318
g38
(dp319
g40
(lp320
(dp321
S'type'
p322
S"<class 'gpi.widgets.ExclusivePushButtons'>"
p323
sg46
S'R I M P'
p324
sS'kwargs'
p325
(dp326
S'outport'
p327
I00
sS'quietval'
p328
NsS'val'
p329
I2
sS'collapsed'
p330
I00
sS'inport'
p331
I00
sS'visible'
p332
I01
sS'id'
p333
I4499180136
ssa(dp334
g322
S"<class 'gpi.widgets.ExclusivePushButtons'>"
p335
sg46
S'Units'
p336
sg325
(dp337
S'outport'
p338
I00
sS'quietval'
p339
Nsg329
I1
sS'collapsed'
p340
I00
sS'inport'
p341
I00
sS'visible'
p342
I00
sS'id'
p343
I4368798536
ssa(dp344
g322
S"<class 'gpi.widgets.PushButton'>"
p345
sg46
S'UnWrap'
p346
sg325
(dp347
S'outport'
p348
I00
sS'quietval'
p349
Nsg329
I00
sS'collapsed'
p350
I00
sS'inport'
p351
I00
sS'visible'
p352
I00
sS'toggle'
p353
I01
sS'button_title'
p354
V
p355
sS'id'
p356
I4368798080
ssa(dp357
g322
S"<class 'gpi.widgets.Slider'>"
p358
sg46
S'UnWrap Dimension'
p359
sg325
(dp360
S'outport'
p361
I00
sS'quietval'
p362
Nsg329
I0
sS'min'
p363
I-3
sS'max'
p364
I2
sS'collapsed'
p365
I00
sS'inport'
p366
I00
sS'visible'
p367
I00
sS'id'
p368
I4368799752
ssasg42
S'Mag'
p369
ssg44
S'0.230020880699'
p370
sg46
S'RIMP'
p371
sg48
(lp372
F91.61905361244209
aF34.455894692849284
asg53
(lp373
(dp374
g70
g123
sg69
I0
sg56
(lp375
(dp376
g59
(dp377
g61
g123
sg64
I4794586992
sg63
I0
sg65
I4788258824
ssg66
(dp378
g61
g125
sg64
I4685482600
sg63
I0
sg65
I4368984224
ssasg71
Nsg72
I65540
sg73
I100
sg50
I4794586992
sa(dp379
g70
g68
sg69
I0
sg56
(lp380
(dp381
g59
(dp382
g61
g123
sg64
I4684353320
sg63
I0
sg65
I4368777296
ssg66
(dp383
g61
g68
sg64
I4794587144
sg63
I0
sg65
I4788258824
ssasg71
Nsg72
I65541
sg73
Nsg50
I4794587144
sasg51
S'0.00491607189197'
p384
sS'key'
p385
S'core.math.RIMP'
p386
sg50
I4788258824
sg171
S'0.234936952591'
p387
sa(dp388
g38
(dp389
g40
(lp390
(dp391
g322
S"<class 'gpi.widgets.TextBox'>"
p392
sg46
S'Status'
p393
sg325
(dp394
S'openExternalLinks'
p395
I00
sS'outport'
p396
I00
sS'quietval'
p397
Nsg329
S'Ready'
p398
sS'collapsed'
p399
I00
sS'inport'
p400
I00
sS'visible'
p401
I01
sS'wordwrap'
p402
I00
sS'id'
p403
I4368779880
ssa(dp404
g322
S"<class 'gpi.widgets.TextBox'>"
p405
sg46
S'Info'
p406
sg325
(dp407
S'openExternalLinks'
p408
I00
sS'outport'
p409
I00
sS'quietval'
p410
Nsg329
S'input: (12, 240, 240)\noutput: (240, 240)'
p411
sS'collapsed'
p412
I00
sS'inport'
p413
I00
sS'visible'
p414
I01
sS'wordwrap'
p415
I00
sS'id'
p416
I4368780336
ssa(dp417
g322
S"<class 'gpi.widgets.ExclusiveRadioButtons'>"
p418
sg46
S'Operation'
p419
sg325
(dp420
S'outport'
p421
I00
sS'quietval'
p422
Nsg329
I5
sS'collapsed'
p423
I00
sS'inport'
p424
I00
sS'visible'
p425
I01
sS'id'
p426
I4368780792
ssa(dp427
g322
S"<class 'gpi.widgets.PushButton'>"
p428
sg46
S'Compute'
p429
sg325
(dp430
S'outport'
p431
I00
sS'quietval'
p432
Nsg329
I01
sS'collapsed'
p433
I00
sS'inport'
p434
I00
sS'visible'
p435
I01
sS'toggle'
p436
I01
sS'button_title'
p437
g355
sS'id'
p438
I4368721624
ssa(dp439
g322
S"<class 'gpi.widgets.PushButton'>"
p440
sg46
S'Collapse All'
p441
sg325
(dp442
S'outport'
p443
I00
sS'quietval'
p444
Nsg329
I00
sS'collapsed'
p445
I00
sS'inport'
p446
I00
sS'visible'
p447
I01
sS'toggle'
p448
I01
sS'button_title'
p449
g355
sS'id'
p450
I4368722384
ssa(dp451
g322
S"<class 'gpi.widgets.ExclusivePushButtons'>"
p452
sg46
S'Dimension'
p453
sg325
(dp454
S'outport'
p455
I00
sS'quietval'
p456
Nsg329
I2
sS'collapsed'
p457
I00
sS'inport'
p458
I00
sS'visible'
p459
I01
sS'id'
p460
I4368723144
ssa(dp461
g322
S"<class 'gpi.widgets.PushButton'>"
p462
sg46
S'Span Entire Dimension'
p463
sg325
(dp464
S'outport'
p465
I00
sS'quietval'
p466
Nsg329
I01
sS'collapsed'
p467
I00
sS'inport'
p468
I00
sS'visible'
p469
I01
sS'toggle'
p470
I01
sS'button_title'
p471
g355
sS'id'
p472
I4684349672
ssa(dp473
g322
S"<class 'gpi.widgets.Slider'>"
p474
sg46
S'Dimension Start_Index'
p475
sg325
(dp476
S'outport'
p477
I00
sS'quietval'
p478
Nsg329
I0
sS'min'
p479
I0
sS'max'
p480
I12
sS'collapsed'
p481
I00
sS'inport'
p482
I00
sS'visible'
p483
I00
sS'id'
p484
I4684350432
ssa(dp485
g322
S"<class 'gpi.widgets.Slider'>"
p486
sg46
S'Dimension Stop_Index'
p487
sg325
(dp488
S'outport'
p489
I00
sS'quietval'
p490
Nsg329
I0
sS'min'
p491
I0
sS'max'
p492
I12
sS'collapsed'
p493
I00
sS'inport'
p494
I00
sS'visible'
p495
I00
sS'id'
p496
I4684351648
ssa(dp497
g322
S"<class 'gpi.widgets.PushButton'>"
p498
sg46
S'Non-Zero'
p499
sg325
(dp500
S'outport'
p501
I00
sS'quietval'
p502
Nsg329
I00
sS'collapsed'
p503
I00
sS'inport'
p504
I00
sS'visible'
p505
I00
sS'toggle'
p506
I01
sS'button_title'
p507
g355
sS'id'
p508
I4788258368
ssasg42
g43
ssg44
S'0.177711009979'
p509
sg46
S'Collapse'
p510
sg48
(lp511
F91.61905361244209
aF64.45589469284928
asg53
(lp512
(dp513
g70
g123
sg69
I0
sg56
(lp514
(dp515
g59
(dp516
g61
g123
sg64
I4684353320
sg63
I0
sg65
I4368777296
ssg66
(dp517
g61
g68
sg64
I4794587144
sg63
I0
sg65
I4788258824
ssasg71
Nsg72
I65540
sg73
I100
sg50
I4684353320
sa(dp518
g70
S'Collapse Single Dim'
p519
sg69
I0
sg56
(lp520
(dp521
g59
(dp522
g61
g123
sg64
I4368836160
sg63
I0
sg65
I4684437816
ssg66
(dp523
g61
g519
sg64
I4684435536
sg63
I0
sg65
I4368777296
ssasg71
Nsg72
I65541
sg73
Nsg50
I4684435536
sa(dp524
g70
S'Collapse All Dims'
p525
sg69
I1
sg56
(lp526
sg71
Nsg72
I65541
sg73
Nsg50
I4684435688
sa(dp527
g70
S'Max Val Index'
p528
sg69
I2
sg56
(lp529
sg71
Nsg72
I65541
sg73
Nsg50
I4684435840
sasg51
S'0.0199189186094'
p530
sg385
S'core.math.Collapse'
p531
sg50
I4368777296
sg171
S'0.197629928589'
p532
sa(dp533
g38
(dp534
g40
(lp535
(dp536
g322
S"<class 'gpi.widgets.TextBox'>"
p537
sg46
S'I/O Info:'
p538
sg325
(dp539
S'openExternalLinks'
p540
I00
sS'outport'
p541
I00
sS'quietval'
p542
Nsg329
S'created: 02/12/2014\naccessed: 08/02/2015\nmodified: 02/12/2014\nUID: 501\nGID: 80\nfile size (bytes): 3691104\ndimensions: [12, 3, 89, 144]\ntype: complex64\n'
p543
sS'collapsed'
p544
I00
sS'inport'
p545
I00
sS'visible'
p546
I01
sS'wordwrap'
p547
I00
sS'id'
p548
I4734379736
ssa(dp549
g322
S"<class 'gpi.widgets.OpenFileBrowser'>"
p550
sg46
S'File Browser'
p551
sg325
(dp552
S'outport'
p553
I00
sS'quietval'
p554
Nsg329
S'/opt/gpi/doc/Examples/FFE_MS.npy'
p555
sS'collapsed'
p556
I00
sS'inport'
p557
I00
sS'visible'
p558
I01
sS'id'
p559
I4734378976
ssa(dp560
g322
S"<class 'gpi.widgets.PushButton'>"
p561
sg46
S'Squeeze'
p562
sg325
(dp563
S'outport'
p564
I00
sS'quietval'
p565
Nsg329
I00
sS'collapsed'
p566
I00
sS'inport'
p567
I00
sS'visible'
p568
I01
sS'toggle'
p569
I01
sS'button_title'
p570
g355
sS'id'
p571
I4734379584
ssasg42
g43
ssg44
S'0.0530709028244'
p572
sg46
S'ReadNPY'
p573
sg48
(lp574
F-40.1441802866791
aF-20.128040050817248
asg53
(lp575
(dp576
g70
g68
sg69
I0
sg56
(lp577
(dp578
g59
(dp579
g61
g123
sg64
I4499231560
sg63
I0
sg65
I4499201680
ssg66
(dp580
g61
g68
sg64
I4734380040
sg63
I0
sg65
I4499200616
ssasg71
Nsg72
I65541
sg73
Nsg50
I4734380040
sasg51
S'0.00390994548799'
p581
sg385
S'core.fileIO.ReadNPY'
p582
sg50
I4499200616
sg171
S'0.0491609573364'
p583
sa(dp584
g38
(dp585
g40
(lp586
(dp587
g322
S"<class '/opt/gpi/node/core/math/GPI/FFT_NUMPY_GPI.FFTW_GROUP'>"
p588
sg46
S'Dimension[-1]'
p589
sg325
(dp590
S'outport'
p591
I00
sS'quietval'
p592
Nsg329
(dp593
S'length'
p594
I144
sS'in_len'
p595
I144
sS'compute'
p596
I01
ssS'collapsed'
p597
I00
sS'inport'
p598
I00
sS'visible'
p599
I01
sS'id'
p600
I4368885616
ssa(dp601
g322
S"<class '/opt/gpi/node/core/math/GPI/FFT_NUMPY_GPI.FFTW_GROUP'>"
p602
sg46
S'Dimension[-2]'
p603
sg325
(dp604
S'outport'
p605
I00
sS'quietval'
p606
Nsg329
(dp607
g594
I89
sg595
I89
sg596
I00
ssS'collapsed'
p608
I00
sS'inport'
p609
I00
sS'visible'
p610
I01
sS'id'
p611
I4723913392
ssa(dp612
g322
S"<class '/opt/gpi/node/core/math/GPI/FFT_NUMPY_GPI.FFTW_GROUP'>"
p613
sg46
S'Dimension[-3]'
p614
sg325
(dp615
S'outport'
p616
I00
sS'quietval'
p617
Nsg329
(dp618
g594
I3
sg595
I3
sg596
I00
ssS'collapsed'
p619
I00
sS'inport'
p620
I00
sS'visible'
p621
I01
sS'id'
p622
I4723914912
ssa(dp623
g322
S"<class '/opt/gpi/node/core/math/GPI/FFT_NUMPY_GPI.FFTW_GROUP'>"
p624
sg46
S'Dimension[-4]'
p625
sg325
(dp626
S'outport'
p627
I00
sS'quietval'
p628
Nsg329
(dp629
g594
I12
sg595
I12
sg596
I00
ssS'collapsed'
p630
I00
sS'inport'
p631
I00
sS'visible'
p632
I01
sS'id'
p633
I4368990896
ssa(dp634
g322
S"<class '/opt/gpi/node/core/math/GPI/FFT_NUMPY_GPI.FFTW_GROUP'>"
p635
sg46
S'Dimension[-5]'
p636
sg325
(dp637
S'outport'
p638
I00
sS'quietval'
p639
Nsg329
(dp640
g594
I12
sg595
I12
sg596
I00
ssS'collapsed'
p641
I00
sS'inport'
p642
I00
sS'visible'
p643
I00
sS'id'
p644
I4499282080
ssa(dp645
g322
S"<class '/opt/gpi/node/core/math/GPI/FFT_NUMPY_GPI.FFTW_GROUP'>"
p646
sg46
S'Dimension[-6]'
p647
sg325
(dp648
S'outport'
p649
I00
sS'quietval'
p650
Nsg329
(dp651
g594
I1
sg595
I1
sg596
I00
ssS'collapsed'
p652
I00
sS'inport'
p653
I00
sS'visible'
p654
I00
sS'id'
p655
I4499283296
ssa(dp656
g322
S"<class '/opt/gpi/node/core/math/GPI/FFT_NUMPY_GPI.FFTW_GROUP'>"
p657
sg46
S'Dimension[-7]'
p658
sg325
(dp659
S'outport'
p660
I00
sS'quietval'
p661
Nsg329
(dp662
g594
I1
sg595
I1
sg596
I00
ssS'collapsed'
p663
I00
sS'inport'
p664
I00
sS'visible'
p665
I00
sS'id'
p666
I4685673288
ssa(dp667
g322
S"<class '/opt/gpi/node/core/math/GPI/FFT_NUMPY_GPI.FFTW_GROUP'>"
p668
sg46
S'Dimension[-8]'
p669
sg325
(dp670
S'outport'
p671
I00
sS'quietval'
p672
Nsg329
(dp673
g594
I1
sg595
I1
sg596
I00
ssS'collapsed'
p674
I00
sS'inport'
p675
I00
sS'visible'
p676
I00
sS'id'
p677
I4685675720
ssa(dp678
g322
S"<class '/opt/gpi/node/core/math/GPI/FFT_NUMPY_GPI.FFTW_GROUP'>"
p679
sg46
S'Dimension[-9]'
p680
sg325
(dp681
S'outport'
p682
I00
sS'quietval'
p683
Nsg329
(dp684
g594
I1
sg595
I1
sg596
I00
ssS'collapsed'
p685
I00
sS'inport'
p686
I00
sS'visible'
p687
I00
sS'id'
p688
I4368747264
ssa(dp689
g322
S"<class 'gpi.widgets.PushButton'>"
p690
sg46
g596
sg325
(dp691
S'outport'
p692
I00
sS'quietval'
p693
Nsg329
I01
sS'collapsed'
p694
I00
sS'inport'
p695
I00
sS'visible'
p696
I01
sS'toggle'
p697
I01
sS'button_title'
p698
g355
sS'id'
p699
I4499232016
ssa(dp700
g322
S"<class 'gpi.widgets.PushButton'>"
p701
sg46
S'direction'
p702
sg325
(dp703
S'outport'
p704
I00
sS'quietval'
p705
Nsg329
I00
sS'collapsed'
p706
I00
sS'inport'
p707
I00
sS'visible'
p708
I01
sS'toggle'
p709
I01
sS'button_title'
p710
VFORWARD
p711
sS'id'
p712
I4499233840
ssasg42
g43
ssg44
S'0.280397891998'
p713
sg46
S'FFT_NUMPY'
p714
sg48
(lp715
F-40.1441802866791
aF-20.128040050817248
asg53
(lp716
(dp717
g70
g123
sg69
I0
sg56
(lp718
(dp719
g59
(dp720
g61
g123
sg64
I4499231560
sg63
I0
sg65
I4499201680
ssg66
(dp721
g61
g68
sg64
I4734380040
sg63
I0
sg65
I4499200616
ssasg71
Nsg72
I65540
sg73
I100
sg50
I4499231560
sa(dp722
g70
g68
sg69
I0
sg56
(lp723
(dp724
g59
(dp725
g61
g123
sg64
I4368805368
sg63
I0
sg65
I4730905872
ssg66
(dp726
g61
g68
sg64
I4499230952
sg63
I0
sg65
I4499201680
ssasg71
Nsg72
I65541
sg73
Nsg50
I4499230952
sasg51
S'0.0072820186614'
p727
sg385
S'core.math.FFT_NUMPY'
p728
sg50
I4499201680
sg171
S'0.28767991066'
p729
sa(dp730
g38
(dp731
g40
(lp732
sg42
g43
ssg44
S'0.000908136367798'
p733
sg46
g47
sg48
(lp734
F-40.1441802866791
aF-20.128040050817248
asg53
(lp735
(dp736
g70
g62
sg69
I0
sg56
(lp737
(dp738
g59
(dp739
g61
g62
sg64
I4685482448
sg63
I0
sg65
I4368984224
ssg66
(dp740
g61
g68
sg64
I4499200768
sg63
I0
sg65
I4499132800
ssasg71
Nsg72
I65540
sg73
I200
sg50
I4685482448
sa(dp741
g70
g76
sg69
I1
sg56
(lp742
sg71
Nsg72
I65540
sg73
I200
sg50
I4685482752
sa(dp743
g70
g79
sg69
I2
sg56
(lp744
sg71
Nsg72
I65540
sg73
I200
sg50
I4685483056
sa(dp745
g70
g82
sg69
I3
sg56
(lp746
sg71
Nsg72
I65540
sg73
I200
sg50
I4685483360
sa(dp747
g70
g85
sg69
I4
sg56
(lp748
sg71
Nsg72
I65540
sg73
I200
sg50
I4685483664
sa(dp749
g70
g88
sg69
I5
sg56
(lp750
sg71
Nsg72
I65540
sg73
I200
sg50
I4685504592
sa(dp751
g70
g91
sg69
I6
sg56
(lp752
sg71
Nsg72
I65540
sg73
I200
sg50
I4685504896
sa(dp753
g70
g94
sg69
I7
sg56
(lp754
sg71
Nsg72
I65540
sg73
I200
sg50
I4685505200
sa(dp755
g70
g97
sg69
I8
sg56
(lp756
sg71
Nsg72
I65540
sg73
I200
sg50
I4685505504
sa(dp757
g70
g100
sg69
I9
sg56
(lp758
sg71
Nsg72
I65540
sg73
I200
sg50
I4685505808
sa(dp759
g70
g103
sg69
I10
sg56
(lp760
sg71
Nsg72
I65540
sg73
I200
sg50
I4685506112
sa(dp761
g70
g106
sg69
I11
sg56
(lp762
sg71
Nsg72
I65540
sg73
I200
sg50
I4685506416
sa(dp763
g70
g109
sg69
I12
sg56
(lp764
sg71
Nsg72
I65540
sg73
I200
sg50
I4685506720
sa(dp765
g70
g112
sg69
I13
sg56
(lp766
sg71
Nsg72
I65540
sg73
I200
sg50
I4685507024
sa(dp767
g70
g115
sg69
I14
sg56
(lp768
sg71
Nsg72
I65540
sg73
I200
sg50
I4685507328
sa(dp769
g70
g118
sg69
I15
sg56
(lp770
sg71
Nsg72
I65540
sg73
I200
sg50
I4685507632
sa(dp771
g70
g125
sg69
I0
sg56
(lp772
(dp773
g59
(dp774
g61
g123
sg64
I4794586992
sg63
I0
sg65
I4788258824
ssg66
(dp775
g61
g125
sg64
I4685482600
sg63
I0
sg65
I4368984224
ssasg71
Nsg72
I65541
sg73
Nsg50
I4685482600
sa(dp776
g70
g128
sg69
I1
sg56
(lp777
sg71
Nsg72
I65541
sg73
Nsg50
I4685482904
sa(dp778
g70
g131
sg69
I2
sg56
(lp779
sg71
Nsg72
I65541
sg73
Nsg50
I4685483208
sa(dp780
g70
g134
sg69
I3
sg56
(lp781
sg71
Nsg72
I65541
sg73
Nsg50
I4685483512
sa(dp782
g70
g137
sg69
I4
sg56
(lp783
sg71
Nsg72
I65541
sg73
Nsg50
I4685483816
sa(dp784
g70
g140
sg69
I5
sg56
(lp785
sg71
Nsg72
I65541
sg73
Nsg50
I4685504744
sa(dp786
g70
g143
sg69
I6
sg56
(lp787
sg71
Nsg72
I65541
sg73
Nsg50
I4685505048
sa(dp788
g70
g146
sg69
I7
sg56
(lp789
sg71
Nsg72
I65541
sg73
Nsg50
I4685505352
sa(dp790
g70
g149
sg69
I8
sg56
(lp791
sg71
Nsg72
I65541
sg73
Nsg50
I4685505656
sa(dp792
g70
g152
sg69
I9
sg56
(lp793
sg71
Nsg72
I65541
sg73
Nsg50
I4685505960
sa(dp794
g70
g155
sg69
I10
sg56
(lp795
sg71
Nsg72
I65541
sg73
Nsg50
I4685506264
sa(dp796
g70
g158
sg69
I11
sg56
(lp797
sg71
Nsg72
I65541
sg73
Nsg50
I4685506568
sa(dp798
g70
g161
sg69
I12
sg56
(lp799
sg71
Nsg72
I65541
sg73
Nsg50
I4685506872
sa(dp800
g70
g164
sg69
I13
sg56
(lp801
sg71
Nsg72
I65541
sg73
Nsg50
I4685507176
sa(dp802
g70
g167
sg69
I14
sg56
(lp803
sg71
Nsg72
I65541
sg73
Nsg50
I4685507480
sa(dp804
g70
g170
sg69
I15
sg56
(lp805
sg71
Nsg72
I65541
sg73
Nsg50
I4685507784
sasg51
S'0.0'
p806
sg50
I4368984224
sg171
S'0.000908136367798'
p807
sa(dp808
g38
(dp809
g40
(lp810
(dp811
g322
S"<class '/opt/gpi/node/core/math/GPI/FFT_NUMPY_GPI.FFTW_GROUP'>"
p812
sg46
S'Dimension[-1]'
p813
sg325
(dp814
S'outport'
p815
I00
sS'quietval'
p816
Nsg329
(dp817
g594
I120
sg595
I144
sg596
I01
ssS'collapsed'
p818
I00
sS'inport'
p819
I00
sS'visible'
p820
I01
sS'id'
p821
I4730907392
ssa(dp822
g322
S"<class '/opt/gpi/node/core/math/GPI/FFT_NUMPY_GPI.FFTW_GROUP'>"
p823
sg46
S'Dimension[-2]'
p824
sg325
(dp825
S'outport'
p826
I00
sS'quietval'
p827
Nsg329
(dp828
g594
I89
sg595
I89
sg596
I00
ssS'collapsed'
p829
I00
sS'inport'
p830
I00
sS'visible'
p831
I01
sS'id'
p832
I4788234096
ssa(dp833
g322
S"<class '/opt/gpi/node/core/math/GPI/FFT_NUMPY_GPI.FFTW_GROUP'>"
p834
sg46
S'Dimension[-3]'
p835
sg325
(dp836
S'outport'
p837
I00
sS'quietval'
p838
Nsg329
(dp839
g594
I3
sg595
I3
sg596
I00
ssS'collapsed'
p840
I00
sS'inport'
p841
I00
sS'visible'
p842
I01
sS'id'
p843
I4685277800
ssa(dp844
g322
S"<class '/opt/gpi/node/core/math/GPI/FFT_NUMPY_GPI.FFTW_GROUP'>"
p845
sg46
S'Dimension[-4]'
p846
sg325
(dp847
S'outport'
p848
I00
sS'quietval'
p849
Nsg329
(dp850
g594
I12
sg595
I12
sg596
I00
ssS'collapsed'
p851
I00
sS'inport'
p852
I00
sS'visible'
p853
I01
sS'id'
p854
I4685662976
ssa(dp855
g322
S"<class '/opt/gpi/node/core/math/GPI/FFT_NUMPY_GPI.FFTW_GROUP'>"
p856
sg46
S'Dimension[-5]'
p857
sg325
(dp858
S'outport'
p859
I00
sS'quietval'
p860
Nsg329
(dp861
g594
I12
sg595
I12
sg596
I00
ssS'collapsed'
p862
I00
sS'inport'
p863
I00
sS'visible'
p864
I00
sS'id'
p865
I4368941136
ssa(dp866
g322
S"<class '/opt/gpi/node/core/math/GPI/FFT_NUMPY_GPI.FFTW_GROUP'>"
p867
sg46
S'Dimension[-6]'
p868
sg325
(dp869
S'outport'
p870
I00
sS'quietval'
p871
Nsg329
(dp872
g594
I1
sg595
I1
sg596
I00
ssS'collapsed'
p873
I00
sS'inport'
p874
I00
sS'visible'
p875
I00
sS'id'
p876
I4685772656
ssa(dp877
g322
S"<class '/opt/gpi/node/core/math/GPI/FFT_NUMPY_GPI.FFTW_GROUP'>"
p878
sg46
S'Dimension[-7]'
p879
sg325
(dp880
S'outport'
p881
I00
sS'quietval'
p882
Nsg329
(dp883
g594
I1
sg595
I1
sg596
I00
ssS'collapsed'
p884
I00
sS'inport'
p885
I00
sS'visible'
p886
I00
sS'id'
p887
I4685774480
ssa(dp888
g322
S"<class '/opt/gpi/node/core/math/GPI/FFT_NUMPY_GPI.FFTW_GROUP'>"
p889
sg46
S'Dimension[-8]'
p890
sg325
(dp891
S'outport'
p892
I00
sS'quietval'
p893
Nsg329
(dp894
g594
I1
sg595
I1
sg596
I00
ssS'collapsed'
p895
I00
sS'inport'
p896
I00
sS'visible'
p897
I00
sS'id'
p898
I4499154648
ssa(dp899
g322
S"<class '/opt/gpi/node/core/math/GPI/FFT_NUMPY_GPI.FFTW_GROUP'>"
p900
sg46
S'Dimension[-9]'
p901
sg325
(dp902
S'outport'
p903
I00
sS'quietval'
p904
Nsg329
(dp905
g594
I1
sg595
I1
sg596
I00
ssS'collapsed'
p906
I00
sS'inport'
p907
I00
sS'visible'
p908
I00
sS'id'
p909
I4499160720
ssa(dp910
g322
S"<class 'gpi.widgets.PushButton'>"
p911
sg46
g596
sg325
(dp912
S'outport'
p913
I00
sS'quietval'
p914
Nsg329
I01
sS'collapsed'
p915
I00
sS'inport'
p916
I00
sS'visible'
p917
I01
sS'toggle'
p918
I01
sS'button_title'
p919
g355
sS'id'
p920
I4368804000
ssa(dp921
g322
S"<class 'gpi.widgets.PushButton'>"
p922
sg46
g702
sg325
(dp923
S'outport'
p924
I00
sS'quietval'
p925
Nsg329
I01
sS'collapsed'
p926
I00
sS'inport'
p927
I00
sS'visible'
p928
I01
sS'toggle'
p929
I01
sS'button_title'
p930
VFORWARD
p931
sS'id'
p932
I4368804760
ssasg42
g43
ssg44
S'0.260322570801'
p933
sg46
g714
sg48
(lp934
F-40.1441802866791
aF-20.128040050817248
asg53
(lp935
(dp936
g70
g123
sg69
I0
sg56
(lp937
(dp938
g59
(dp939
g61
g123
sg64
I4368805368
sg63
I0
sg65
I4730905872
ssg66
(dp940
g61
g68
sg64
I4499230952
sg63
I0
sg65
I4499201680
ssasg71
Nsg72
I65540
sg73
I100
sg50
I4368805368
sa(dp941
g70
g68
sg69
I0
sg56
(lp942
(dp943
g59
(dp944
g61
g123
sg64
I4368831912
sg63
I0
sg65
I4730906480
ssg66
(dp945
g61
g68
sg64
I4368805064
sg63
I0
sg65
I4730905872
ssasg71
Nsg72
I65541
sg73
Nsg50
I4368805064
sasg51
S'0.0225343704223'
p946
sg385
g728
sg50
I4730905872
sg171
S'0.237788200378'
p947
sa(dp948
g38
(dp949
g40
(lp950
(dp951
g322
S"<class 'gpi.widgets.ExclusivePushButtons'>"
p952
sg46
S'Complex Display'
p953
sg325
(dp954
S'outport'
p955
I00
sS'quietval'
p956
Nsg329
I4
sS'collapsed'
p957
I00
sS'inport'
p958
I00
sS'visible'
p959
I00
sS'id'
p960
I4684399584
ssa(dp961
g322
S"<class 'gpi.widgets.ExclusivePushButtons'>"
p962
sg46
S'Color Map'
p963
sg325
(dp964
S'outport'
p965
I00
sS'quietval'
p966
Nsg329
I0
sS'collapsed'
p967
I01
sS'inport'
p968
I00
sS'visible'
p969
I01
sS'id'
p970
I4684400648
ssa(dp971
g322
S"<class 'gpi.widgets.SpinBox'>"
p972
sg46
S'Edge Pixels'
p973
sg325
(dp974
S'outport'
p975
I00
sS'quietval'
p976
Nsg329
I0
sS'min'
p977
I0
sS'max'
p978
I2147483647
sS'collapsed'
p979
I00
sS'wrapping'
p980
I00
sS'immediate'
p981
I00
sS'label'
p982
g355
sS'singlestep'
p983
I1
sS'visible'
p984
I00
sS'inport'
p985
I00
sS'id'
p986
I4684401864
ssa(dp987
g322
S"<class 'gpi.widgets.SpinBox'>"
p988
sg46
S'Black Pixels'
p989
sg325
(dp990
S'outport'
p991
I00
sS'quietval'
p992
Nsg329
I0
sS'min'
p993
I0
sS'max'
p994
I2147483647
sS'collapsed'
p995
I00
sS'wrapping'
p996
I00
sS'immediate'
p997
I00
sS'label'
p998
g355
sS'singlestep'
p999
I1
sS'visible'
p1000
I00
sS'inport'
p1001
I00
sS'id'
p1002
I4499173608
ssa(dp1003
g322
S"<class 'gpi.widgets.DisplayBox'>"
p1004
sg46
S'Viewport:'
p1005
sg325
(dp1006
S'outport'
p1007
I00
sS'scale'
p1008
F2.2
sS'quietval'
p1009
Nsg329
NsS'collapsed'
p1010
I00
sS'interp'
p1011
I01
sS'inport'
p1012
I00
sS'visible'
p1013
I01
sS'noscroll'
p1014
I01
sS'points'
p1015
NsS'line'
p1016
NsS'id'
p1017
I4499174520
ssa(dp1018
g322
S"<class '/opt/gpi/node/core/display/GPI/ImageDisplay_GPI.WindowLevel'>"
p1019
sg46
S'L W F C:'
p1020
sg325
(dp1021
S'outport'
p1022
I00
sS'quietval'
p1023
Nsg329
(dp1024
S'window'
p1025
I100
sS'floor'
p1026
I0
sS'ceiling'
p1027
I100
sS'level'
p1028
I50
ssS'min'
p1029
I0
sS'max'
p1030
I100
sS'collapsed'
p1031
I01
sS'inport'
p1032
I00
sS'visible'
p1033
I01
sS'id'
p1034
I4499176952
ssa(dp1035
g322
S"<class 'gpi.widgets.ExclusivePushButtons'>"
p1036
sg46
S'Scalar Display'
p1037
sg325
(dp1038
S'outport'
p1039
I00
sS'quietval'
p1040
Nsg329
I0
sS'collapsed'
p1041
I00
sS'inport'
p1042
I00
sS'visible'
p1043
I01
sS'id'
p1044
I4499104128
ssa(dp1045
g322
S"<class 'gpi.widgets.DoubleSpinBox'>"
p1046
sg46
S'Gamma'
p1047
sg325
(dp1048
S'outport'
p1049
I00
sS'quietval'
p1050
Nsg329
F1.0
sS'min'
p1051
F0.1
sS'max'
p1052
F10.0
sS'collapsed'
p1053
I00
sS'wrapping'
p1054
I00
sS'immediate'
p1055
I00
sS'label'
p1056
g355
sS'singlestep'
p1057
F0.05
sS'visible'
p1058
I01
sS'inport'
p1059
I00
sS'decimals'
p1060
I3
sS'id'
p1061
I4499104888
ssa(dp1062
g322
S"<class 'gpi.widgets.ExclusivePushButtons'>"
p1063
sg46
S'Zero Ref'
p1064
sg325
(dp1065
S'outport'
p1066
I00
sS'quietval'
p1067
Nsg329
I0
sS'collapsed'
p1068
I00
sS'inport'
p1069
I00
sS'visible'
p1070
I01
sS'id'
p1071
I4499105800
ssa(dp1072
g322
S"<class 'gpi.widgets.PushButton'>"
p1073
sg46
S'Fix Range'
p1074
sg325
(dp1075
S'outport'
p1076
I00
sS'quietval'
p1077
Nsg329
I00
sS'collapsed'
p1078
I00
sS'inport'
p1079
I00
sS'visible'
p1080
I01
sS'toggle'
p1081
I01
sS'button_title'
p1082
VAuto-Range On
p1083
sS'id'
p1084
I4499106712
ssa(dp1085
g322
S"<class 'gpi.widgets.DoubleSpinBox'>"
p1086
sg46
S'Range Min'
p1087
sg325
(dp1088
S'outport'
p1089
I00
sS'quietval'
p1090
Nsg329
F48.5
sS'min'
p1091
F-1.7976931348623157e+308
sS'max'
p1092
F1.7976931348623157e+308
sS'collapsed'
p1093
I00
sS'wrapping'
p1094
I00
sS'immediate'
p1095
I00
sS'label'
p1096
g355
sS'singlestep'
p1097
F1.0
sS'visible'
p1098
I01
sS'inport'
p1099
I00
sS'decimals'
p1100
I2
sS'id'
p1101
I4499107472
ssa(dp1102
g322
S"<class 'gpi.widgets.DoubleSpinBox'>"
p1103
sg46
S'Range Max'
p1104
sg325
(dp1105
S'outport'
p1106
I00
sS'quietval'
p1107
Nsg329
F14250.88
sS'min'
p1108
F-1.7976931348623157e+308
sS'max'
p1109
F1.7976931348623157e+308
sS'collapsed'
p1110
I00
sS'wrapping'
p1111
I00
sS'immediate'
p1112
I00
sS'label'
p1113
g355
sS'singlestep'
p1114
F1.0
sS'visible'
p1115
I01
sS'inport'
p1116
I00
sS'decimals'
p1117
I2
sS'id'
p1118
I4368835248
ssasg42
g43
ssg44
S'0.00824105739593'
p1119
sg46
S'ImageDisplay'
p1120
sg48
(lp1121
F91.61905361244209
aF94.45589469284928
asg53
(lp1122
(dp1123
g70
g123
sg69
I0
sg56
(lp1124
(dp1125
g59
(dp1126
g61
g123
sg64
I4368836160
sg63
I0
sg65
I4684437816
ssg66
(dp1127
g61
g519
sg64
I4684435536
sg63
I0
sg65
I4368777296
ssasg71
Nsg72
I65540
sg73
I100
sg50
I4368836160
sa(dp1128
g70
g68
sg69
I0
sg56
(lp1129
sg71
Nsg72
I65541
sg73
Nsg50
I4368836312
sasg51
S'0.000504136085513'
p1130
sg385
S'core.display.ImageDisplay'
p1131
sg50
I4684437816
sg171
S'0.00874519348145'
p1132
sa(dp1133
g38
(dp1134
g40
(lp1135
sg42
g43
ssg44
S'2.78949737549e-05'
p1136
sg46
g47
sg48
(lp1137
F43.22023087139286
aF-6.107661810596085
asg53
(lp1138
(dp1139
g70
g125
sg69
I0
sg56
(lp1140
(dp1141
g59
(dp1142
g61
g123
sg64
I4794586992
sg63
I0
sg65
I4788258824
ssg66
(dp1143
g61
g125
sg64
I4685482600
sg63
I0
sg65
I4368984224
ssasg71
Nsg72
I65541
sg73
Nsg50
I4685482600
sasg51
S'0.0'
p1144
sg50
I4685507936
sg171
S'2.78949737549e-05'
p1145
sa(dp1146
g38
(dp1147
g40
(lp1148
(dp1149
g322
S"<class 'gpi.widgets.TextBox'>"
p1150
sg46
S'I/O Info:'
p1151
sg325
(dp1152
S'openExternalLinks'
p1153
I00
sS'outport'
p1154
I00
sS'quietval'
p1155
Nsg329
S'input: (12, 3, 89, 120)\noutput: (12, 89, 120)'
p1156
sS'collapsed'
p1157
I00
sS'inport'
p1158
I00
sS'visible'
p1159
I01
sS'wordwrap'
p1160
I00
sS'id'
p1161
I4368825392
ssa(dp1162
g322
S"<class '/opt/gpi/node/core/shapers/GPI/Reduce_GPI.ReduceSliders'>"
p1163
sg46
S'Dimension[-1]'
p1164
sg325
(dp1165
S'outport'
p1166
I00
sS'quietval'
p1167
Nsg329
(dp1168
S'width'
p1169
I120
sg1027
I120
sS'selection'
p1170
I3
sS'center'
p1171
I61
sg1026
I1
ssS'min'
p1172
I1
sS'max'
p1173
I120
sS'collapsed'
p1174
I00
sS'inport'
p1175
I00
sS'visible'
p1176
I01
sS'id'
p1177
I4368823264
ssa(dp1178
g322
S"<class '/opt/gpi/node/core/shapers/GPI/Reduce_GPI.ReduceSliders'>"
p1179
sg46
S'Dimension[-2]'
p1180
sg325
(dp1181
S'outport'
p1182
I00
sS'quietval'
p1183
Nsg329
(dp1184
g1169
I89
sg1027
I89
sg1170
I3
sg1171
I45
sg1026
I1
ssS'min'
p1185
I1
sS'max'
p1186
I89
sS'collapsed'
p1187
I00
sS'inport'
p1188
I00
sS'visible'
p1189
I01
sS'id'
p1190
I4685725776
ssa(dp1191
g322
S"<class '/opt/gpi/node/core/shapers/GPI/Reduce_GPI.ReduceSliders'>"
p1192
sg46
S'Dimension[-3]'
p1193
sg325
(dp1194
S'outport'
p1195
I00
sS'quietval'
p1196
Nsg329
(dp1197
g1169
I1
sg1027
I1
sg1170
I2
sg1171
I1
sg1026
I1
ssS'min'
p1198
I1
sS'max'
p1199
I3
sS'collapsed'
p1200
I00
sS'inport'
p1201
I00
sS'visible'
p1202
I01
sS'id'
p1203
I4368847080
ssa(dp1204
g322
S"<class '/opt/gpi/node/core/shapers/GPI/Reduce_GPI.ReduceSliders'>"
p1205
sg46
S'Dimension[-4]'
p1206
sg325
(dp1207
S'outport'
p1208
I00
sS'quietval'
p1209
Nsg329
(dp1210
g1169
I12
sg1027
I12
sg1170
I3
sg1171
I7
sg1026
I1
ssS'min'
p1211
I1
sS'max'
p1212
I12
sS'collapsed'
p1213
I00
sS'inport'
p1214
I00
sS'visible'
p1215
I01
sS'id'
p1216
I4684360144
ssa(dp1217
g322
S"<class '/opt/gpi/node/core/shapers/GPI/Reduce_GPI.ReduceSliders'>"
p1218
sg46
S'Dimension[-5]'
p1219
sg325
(dp1220
S'outport'
p1221
I00
sS'quietval'
p1222
Nsg329
(dp1223
g1169
I12
sg1027
I12
sg1170
I3
sg1171
I7
sg1026
I1
ssS'min'
p1224
I1
sS'max'
p1225
I12
sS'collapsed'
p1226
I00
sS'inport'
p1227
I00
sS'visible'
p1228
I00
sS'id'
p1229
I4684331624
ssa(dp1230
g322
S"<class '/opt/gpi/node/core/shapers/GPI/Reduce_GPI.ReduceSliders'>"
p1231
sg46
S'Dimension[-6]'
p1232
sg325
(dp1233
S'outport'
p1234
I00
sS'quietval'
p1235
Nsg329
(dp1236
g1169
I100
sg1027
I100
sg1170
I3
sg1171
I51
sg1026
I1
ssS'min'
p1237
I1
sS'max'
p1238
I100
sS'collapsed'
p1239
I00
sS'inport'
p1240
I00
sS'visible'
p1241
I00
sS'id'
p1242
I4685270216
ssa(dp1243
g322
S"<class '/opt/gpi/node/core/shapers/GPI/Reduce_GPI.ReduceSliders'>"
p1244
sg46
S'Dimension[-7]'
p1245
sg325
(dp1246
S'outport'
p1247
I00
sS'quietval'
p1248
Nsg329
(dp1249
g1169
I100
sg1027
I100
sg1170
I3
sg1171
I51
sg1026
I1
ssS'min'
p1250
I1
sS'max'
p1251
I100
sS'collapsed'
p1252
I00
sS'inport'
p1253
I00
sS'visible'
p1254
I00
sS'id'
p1255
I4663829928
ssa(dp1256
g322
S"<class '/opt/gpi/node/core/shapers/GPI/Reduce_GPI.ReduceSliders'>"
p1257
sg46
S'Dimension[-8]'
p1258
sg325
(dp1259
S'outport'
p1260
I00
sS'quietval'
p1261
Nsg329
(dp1262
g1169
I100
sg1027
I100
sg1170
I3
sg1171
I51
sg1026
I1
ssS'min'
p1263
I1
sS'max'
p1264
I100
sS'collapsed'
p1265
I00
sS'inport'
p1266
I00
sS'visible'
p1267
I00
sS'id'
p1268
I4499360968
ssa(dp1269
g322
S"<class '/opt/gpi/node/core/shapers/GPI/Reduce_GPI.ReduceSliders'>"
p1270
sg46
S'Dimension[-9]'
p1271
sg325
(dp1272
S'outport'
p1273
I00
sS'quietval'
p1274
Nsg329
(dp1275
g1169
I100
sg1027
I100
sg1170
I3
sg1171
I51
sg1026
I1
ssS'min'
p1276
I1
sS'max'
p1277
I100
sS'collapsed'
p1278
I00
sS'inport'
p1279
I00
sS'visible'
p1280
I00
sS'id'
p1281
I4499029192
ssa(dp1282
g322
S"<class '/opt/gpi/node/core/shapers/GPI/Reduce_GPI.ReduceSliders'>"
p1283
sg46
S'Dimension[-10]'
p1284
sg325
(dp1285
S'outport'
p1286
I00
sS'quietval'
p1287
Nsg329
(dp1288
g1169
I100
sg1027
I100
sg1170
I3
sg1171
I51
sg1026
I1
ssS'min'
p1289
I1
sS'max'
p1290
I100
sS'collapsed'
p1291
I00
sS'inport'
p1292
I00
sS'visible'
p1293
I00
sS'id'
p1294
I4368937192
ssa(dp1295
g322
S"<class 'gpi.widgets.PushButton'>"
p1296
sg46
S'Mask'
p1297
sg325
(dp1298
S'outport'
p1299
I00
sS'quietval'
p1300
Nsg329
I00
sS'collapsed'
p1301
I00
sS'inport'
p1302
I00
sS'visible'
p1303
I01
sS'toggle'
p1304
I01
sS'button_title'
p1305
g355
sS'id'
p1306
I4685307688
ssa(dp1307
g322
S"<class 'gpi.widgets.PushButton'>"
p1308
sg46
g429
sg325
(dp1309
S'outport'
p1310
I00
sS'quietval'
p1311
Nsg329
I01
sS'collapsed'
p1312
I00
sS'inport'
p1313
I00
sS'visible'
p1314
I01
sS'toggle'
p1315
I01
sS'button_title'
p1316
g355
sS'id'
p1317
I4368832216
ssasg42
g43
ssg44
S'0.166013479233'
p1318
sg46
S'Reduce'
p1319
sg48
(lp1320
F-40.1441802866791
aF-20.128040050817248
asg53
(lp1321
(dp1322
g70
g123
sg69
I0
sg56
(lp1323
(dp1324
g59
(dp1325
g61
g123
sg64
I4368831912
sg63
I0
sg65
I4730906480
ssg66
(dp1326
g61
g68
sg64
I4368805064
sg63
I0
sg65
I4730905872
ssasg71
Nsg72
I65540
sg73
I100
sg50
I4368831912
sa(dp1327
g70
g68
sg69
I0
sg56
(lp1328
(dp1329
g59
(dp1330
g61
g123
sg64
I4499107920
sg63
I0
sg65
I4499132800
ssg66
(dp1331
g61
g68
sg64
I4368832064
sg63
I0
sg65
I4730906480
ssasg71
Nsg72
I65541
sg73
Nsg50
I4368832064
sa(dp1332
g70
S'mask'
p1333
sg69
I1
sg56
(lp1334
sg71
Nsg72
I65541
sg73
Nsg50
I4368831152
sasg51
S'0.0310485363004'
p1335
sg385
S'core.shapers.Reduce'
p1336
sg50
I4730906480
sg171
S'0.134964942932'
p1337
sa(dp1338
g38
(dp1339
g40
(lp1340
(dp1341
g322
S"<class '/opt/gpi/node/core/math/GPI/FFT_NUMPY_GPI.FFTW_GROUP'>"
p1342
sg46
S'Dimension[-1]'
p1343
sg325
(dp1344
S'outport'
p1345
I00
sS'quietval'
p1346
Nsg329
(dp1347
g594
I240
sg595
I120
sg596
I01
ssS'collapsed'
p1348
I00
sS'inport'
p1349
I00
sS'visible'
p1350
I01
sS'id'
p1351
I4499094576
ssa(dp1352
g322
S"<class '/opt/gpi/node/core/math/GPI/FFT_NUMPY_GPI.FFTW_GROUP'>"
p1353
sg46
S'Dimension[-2]'
p1354
sg325
(dp1355
S'outport'
p1356
I00
sS'quietval'
p1357
Nsg329
(dp1358
g594
I240
sg595
I89
sg596
I01
ssS'collapsed'
p1359
I00
sS'inport'
p1360
I00
sS'visible'
p1361
I01
sS'id'
p1362
I4499039656
ssa(dp1363
g322
S"<class '/opt/gpi/node/core/math/GPI/FFT_NUMPY_GPI.FFTW_GROUP'>"
p1364
sg46
S'Dimension[-3]'
p1365
sg325
(dp1366
S'outport'
p1367
I00
sS'quietval'
p1368
Nsg329
(dp1369
g594
I12
sg595
I12
sg596
I00
ssS'collapsed'
p1370
I00
sS'inport'
p1371
I00
sS'visible'
p1372
I01
sS'id'
p1373
I4499038896
ssa(dp1374
g322
S"<class '/opt/gpi/node/core/math/GPI/FFT_NUMPY_GPI.FFTW_GROUP'>"
p1375
sg46
S'Dimension[-4]'
p1376
sg325
(dp1377
S'outport'
p1378
I00
sS'quietval'
p1379
Nsg329
(dp1380
g594
I1
sg595
I1
sg596
I00
ssS'collapsed'
p1381
I00
sS'inport'
p1382
I00
sS'visible'
p1383
I00
sS'id'
p1384
I4724084520
ssa(dp1385
g322
S"<class '/opt/gpi/node/core/math/GPI/FFT_NUMPY_GPI.FFTW_GROUP'>"
p1386
sg46
S'Dimension[-5]'
p1387
sg325
(dp1388
S'outport'
p1389
I00
sS'quietval'
p1390
Nsg329
(dp1391
g594
I1
sg595
I1
sg596
I00
ssS'collapsed'
p1392
I00
sS'inport'
p1393
I00
sS'visible'
p1394
I00
sS'id'
p1395
I4724082392
ssa(dp1396
g322
S"<class '/opt/gpi/node/core/math/GPI/FFT_NUMPY_GPI.FFTW_GROUP'>"
p1397
sg46
S'Dimension[-6]'
p1398
sg325
(dp1399
S'outport'
p1400
I00
sS'quietval'
p1401
Nsg329
(dp1402
g594
I1
sg595
I1
sg596
I00
ssS'collapsed'
p1403
I00
sS'inport'
p1404
I00
sS'visible'
p1405
I00
sS'id'
p1406
I4368969960
ssa(dp1407
g322
S"<class '/opt/gpi/node/core/math/GPI/FFT_NUMPY_GPI.FFTW_GROUP'>"
p1408
sg46
S'Dimension[-7]'
p1409
sg325
(dp1410
S'outport'
p1411
I00
sS'quietval'
p1412
Nsg329
(dp1413
g594
I1
sg595
I1
sg596
I00
ssS'collapsed'
p1414
I00
sS'inport'
p1415
I00
sS'visible'
p1416
I00
sS'id'
p1417
I4369004552
ssa(dp1418
g322
S"<class '/opt/gpi/node/core/math/GPI/FFT_NUMPY_GPI.FFTW_GROUP'>"
p1419
sg46
S'Dimension[-8]'
p1420
sg325
(dp1421
S'outport'
p1422
I00
sS'quietval'
p1423
Nsg329
(dp1424
g594
I1
sg595
I1
sg596
I00
ssS'collapsed'
p1425
I00
sS'inport'
p1426
I00
sS'visible'
p1427
I00
sS'id'
p1428
I4685498832
ssa(dp1429
g322
S"<class '/opt/gpi/node/core/math/GPI/FFT_NUMPY_GPI.FFTW_GROUP'>"
p1430
sg46
S'Dimension[-9]'
p1431
sg325
(dp1432
S'outport'
p1433
I00
sS'quietval'
p1434
Nsg329
(dp1435
g594
I1
sg595
I1
sg596
I00
ssS'collapsed'
p1436
I00
sS'inport'
p1437
I00
sS'visible'
p1438
I00
sS'id'
p1439
I4685498224
ssa(dp1440
g322
S"<class 'gpi.widgets.PushButton'>"
p1441
sg46
g596
sg325
(dp1442
S'outport'
p1443
I00
sS'quietval'
p1444
Nsg329
I01
sS'collapsed'
p1445
I00
sS'inport'
p1446
I00
sS'visible'
p1447
I01
sS'toggle'
p1448
I01
sS'button_title'
p1449
g355
sS'id'
p1450
I4499109288
ssa(dp1451
g322
S"<class 'gpi.widgets.PushButton'>"
p1452
sg46
g702
sg325
(dp1453
S'outport'
p1454
I00
sS'quietval'
p1455
Nsg329
I00
sS'collapsed'
p1456
I00
sS'inport'
p1457
I00
sS'visible'
p1458
I01
sS'toggle'
p1459
I01
sS'button_title'
p1460
VFORWARD
p1461
sS'id'
p1462
I4499109744
ssasg42
g43
ssg44
S'0.362334966659'
p1463
sg46
g714
sg48
(lp1464
F-40.1441802866791
aF-20.128040050817248
asg53
(lp1465
(dp1466
g70
g123
sg69
I0
sg56
(lp1467
(dp1468
g59
(dp1469
g61
g123
sg64
I4499107920
sg63
I0
sg65
I4499132800
ssg66
(dp1470
g61
g68
sg64
I4368832064
sg63
I0
sg65
I4730906480
ssasg71
Nsg72
I65540
sg73
I100
sg50
I4499107920
sa(dp1471
g70
g68
sg69
I0
sg56
(lp1472
(dp1473
g59
(dp1474
g61
g62
sg64
I4685482448
sg63
I0
sg65
I4368984224
ssg66
(dp1475
g61
g68
sg64
I4499200768
sg63
I0
sg65
I4499132800
ssasg71
Nsg72
I65541
sg73
Nsg50
I4499200768
sasg51
S'0.00214695930463'
p1476
sg385
g728
sg50
I4499132800
sg171
S'0.360188007355'
p1477
sa(dp1478
g38
(dp1479
g40
(lp1480
sg42
g43
ssg44
S'0.000614881515503'
p1481
sg46
g47
sg48
(lp1482
F-40.1441802866791
aF-20.128040050817248
asg53
(lp1483
(dp1484
g70
g222
sg69
I0
sg56
(lp1485
sg71
Nsg72
I65540
sg73
I200
sg50
I4368856336
sa(dp1486
g70
g225
sg69
I1
sg56
(lp1487
sg71
Nsg72
I65540
sg73
I200
sg50
I4368856640
sa(dp1488
g70
g228
sg69
I2
sg56
(lp1489
sg71
Nsg72
I65540
sg73
I200
sg50
I4368856944
sa(dp1490
g70
g231
sg69
I3
sg56
(lp1491
sg71
Nsg72
I65540
sg73
I200
sg50
I4368857248
sa(dp1492
g70
g234
sg69
I4
sg56
(lp1493
sg71
Nsg72
I65540
sg73
I200
sg50
I4368857552
sa(dp1494
g70
g237
sg69
I5
sg56
(lp1495
sg71
Nsg72
I65540
sg73
I200
sg50
I4368857856
sa(dp1496
g70
g240
sg69
I6
sg56
(lp1497
sg71
Nsg72
I65540
sg73
I200
sg50
I4368858160
sa(dp1498
g70
g243
sg69
I7
sg56
(lp1499
sg71
Nsg72
I65540
sg73
I200
sg50
I4368858464
sa(dp1500
g70
g246
sg69
I8
sg56
(lp1501
sg71
Nsg72
I65540
sg73
I200
sg50
I4368858768
sa(dp1502
g70
g249
sg69
I9
sg56
(lp1503
sg71
Nsg72
I65540
sg73
I200
sg50
I4368982096
sa(dp1504
g70
g252
sg69
I10
sg56
(lp1505
sg71
Nsg72
I65540
sg73
I200
sg50
I4368982400
sa(dp1506
g70
g255
sg69
I11
sg56
(lp1507
sg71
Nsg72
I65540
sg73
I200
sg50
I4368982704
sa(dp1508
g70
g258
sg69
I12
sg56
(lp1509
sg71
Nsg72
I65540
sg73
I200
sg50
I4368983008
sa(dp1510
g70
g261
sg69
I13
sg56
(lp1511
sg71
Nsg72
I65540
sg73
I200
sg50
I4368983312
sa(dp1512
g70
g264
sg69
I14
sg56
(lp1513
sg71
Nsg72
I65540
sg73
I200
sg50
I4368983616
sa(dp1514
g70
g267
sg69
I15
sg56
(lp1515
sg71
Nsg72
I65540
sg73
I200
sg50
I4368983920
sa(dp1516
g70
g270
sg69
I0
sg56
(lp1517
sg71
Nsg72
I65541
sg73
Nsg50
I4368856488
sa(dp1518
g70
g273
sg69
I1
sg56
(lp1519
sg71
Nsg72
I65541
sg73
Nsg50
I4368856792
sa(dp1520
g70
g276
sg69
I2
sg56
(lp1521
sg71
Nsg72
I65541
sg73
Nsg50
I4368857096
sa(dp1522
g70
g279
sg69
I3
sg56
(lp1523
sg71
Nsg72
I65541
sg73
Nsg50
I4368857400
sa(dp1524
g70
g282
sg69
I4
sg56
(lp1525
sg71
Nsg72
I65541
sg73
Nsg50
I4368857704
sa(dp1526
g70
g285
sg69
I5
sg56
(lp1527
sg71
Nsg72
I65541
sg73
Nsg50
I4368858008
sa(dp1528
g70
g288
sg69
I6
sg56
(lp1529
sg71
Nsg72
I65541
sg73
Nsg50
I4368858312
sa(dp1530
g70
g291
sg69
I7
sg56
(lp1531
sg71
Nsg72
I65541
sg73
Nsg50
I4368858616
sa(dp1532
g70
g294
sg69
I8
sg56
(lp1533
sg71
Nsg72
I65541
sg73
Nsg50
I4368858920
sa(dp1534
g70
g297
sg69
I9
sg56
(lp1535
sg71
Nsg72
I65541
sg73
Nsg50
I4368982248
sa(dp1536
g70
g300
sg69
I10
sg56
(lp1537
sg71
Nsg72
I65541
sg73
Nsg50
I4368982552
sa(dp1538
g70
g303
sg69
I11
sg56
(lp1539
sg71
Nsg72
I65541
sg73
Nsg50
I4368982856
sa(dp1540
g70
g306
sg69
I12
sg56
(lp1541
sg71
Nsg72
I65541
sg73
Nsg50
I4368983160
sa(dp1542
g70
g309
sg69
I13
sg56
(lp1543
sg71
Nsg72
I65541
sg73
Nsg50
I4368983464
sa(dp1544
g70
g312
sg69
I14
sg56
(lp1545
sg71
Nsg72
I65541
sg73
Nsg50
I4368983768
sa(dp1546
g70
g315
sg69
I15
sg56
(lp1547
sg71
Nsg72
I65541
sg73
Nsg50
I4368984072
sasg51
S'0.0'
p1548
sg50
I4368868320
sg171
S'0.000614881515503'
p1549
sassS'WALLTIME'
p1550
S'0.0764071941376'
p1551
s.