(dp0
S'HEADER'
p1
S'This is a GPI Network File'
p2
sS'GPI_VERSION'
p3
S'0.2.0-n1'
p4
sS'PLATFORM'
p5
(dp6
S'OSX'
p7
S'10.10'
p8
sS'PYTHON_VERSION'
p9
S'2.7.6'
p10
sS'PYTHON'
p11
S'CPython'
p12
sS'TOTAL_PHYMEM'
p13
L17179869184L
sS'NUM_CPUS'
p14
I8
sS'HOSTNAME'
p15
S'tron.local'
p16
sg5
S'Darwin-14.0.0-x86_64-i386-64bit'
p17
sS'TOTAL_PHYMEM_STR'
p18
S'16.00 GB'
p19
sS'OS'
p20
S'Darwin'
p21
ssS'DATETIME'
p22
S'Fri Nov  7 13:15:30 2014'
p23
sS'NETWORK_VERSION'
p24
S'2'
p25
sS'layouts'
p26
(lp27
sS'TOTAL_PMEM'
p28
S'13768000'
p29
sS'nodes'
p30
(dp31
S'macroNodes'
p32
(lp33
sg30
(lp34
(dp35
S'widget_settings'
p36
(dp37
S'parms'
p38
(lp39
(dp40
S'type'
p41
S"<class 'gpi.widgets.TextBox'>"
p42
sS'name'
p43
S'I/O Info:'
p44
sS'kwargs'
p45
(dp46
S'openExternalLinks'
p47
I00
sS'outport'
p48
I00
sS'quietval'
p49
NsS'val'
p50
S"created: 07/11/2014\naccessed: 07/11/2014\nmodified: 07/11/2014\nUID: 501\nGID: 20\nfile size (bytes): 2030\ntype: <type 'dict'>\n"
p51
sS'collapsed'
p52
I00
sS'inport'
p53
I00
sS'visible'
p54
I01
sS'wordwrap'
p55
I00
sS'id'
p56
I4774454088
ssa(dp57
g41
S"<class 'gpi.widgets.OpenFileBrowser'>"
p58
sg43
S'File Browser'
p59
sg45
(dp60
S'outport'
p61
I00
sS'quietval'
p62
Nsg50
S'/opt/gpi/doc/Examples/spiral_MS.pickle'
p63
sS'collapsed'
p64
I00
sS'inport'
p65
I00
sS'visible'
p66
I01
sS'id'
p67
I4774454544
ssasS'label'
p68
S'Meta Data'
p69
ssS'avgwalltime'
p70
S'0.140682935715'
p71
sg43
S'ReadPickled'
p72
sS'pos'
p73
(lp74
F-30.099999999999994
aF-127.85
asS'ports'
p75
(lp76
(dp77
S'porttitle'
p78
S'out'
p79
sS'portnum'
p80
I0
sS'connections'
p81
(lp82
(dp83
S'dest'
p84
(dp85
S'portName'
p86
S'params_in'
p87
sS'portID'
p88
I4683533664
sS'portNum'
p89
I0
sS'nodeID'
p90
I4683470552
ssS'src'
p91
(dp92
g86
g79
sg88
I4774455152
sg89
I0
sg90
I4774414344
ssasS'widgetTitle'
p93
NsS'porttype'
p94
I65541
sS'obligation'
p95
NsS'id'
p96
I4774455152
sasS'stdwalltime'
p97
S'0.0200979709624'
p98
sS'key'
p99
S'core.fileIO.ReadPickled'
p100
sg96
I4774414344
sS'walltime'
p101
S'0.120584964752'
p102
sa(dp103
g36
(dp104
g38
(lp105
(dp106
g41
S"<class 'gpi.widgets.PushButton'>"
p107
sg43
S'computenow'
p108
sg45
(dp109
S'outport'
p110
I00
sS'quietval'
p111
Nsg50
I01
sS'collapsed'
p112
I00
sS'inport'
p113
I00
sS'visible'
p114
I01
sS'toggle'
p115
I01
sS'button_title'
p116
V
p117
sS'id'
p118
I4683454016
ssa(dp119
g41
S"<class 'gpi.widgets.Slider'>"
p120
sg43
S'Dims per Set'
p121
sg45
(dp122
S'outport'
p123
I00
sS'quietval'
p124
Nsg50
I2
sS'min'
p125
I1
sS'max'
p126
I2
sS'collapsed'
p127
I00
sS'inport'
p128
I00
sS'visible'
p129
I01
sS'id'
p130
I4683454776
ssa(dp131
g41
S"<class 'gpi.widgets.SpinBox'>"
p132
sg43
S'Iterations'
p133
sg45
(dp134
S'outport'
p135
I00
sS'quietval'
p136
Nsg50
I15
sS'min'
p137
I1
sS'max'
p138
I2147483647
sS'collapsed'
p139
I00
sS'wrapping'
p140
I00
sS'immediate'
p141
I00
sS'label'
p142
g117
sS'singlestep'
p143
I1
sS'visible'
p144
I01
sS'inport'
p145
I00
sS'id'
p146
I4683455992
ssa(dp147
g41
S"<class 'gpi.widgets.DoubleSpinBox'>"
p148
sg43
S'Effective MTX XY'
p149
sg45
(dp150
S'outport'
p151
I00
sS'quietval'
p152
Nsg50
F300.0
sS'min'
p153
F2.0
sS'max'
p154
F1.7976931348623157e+308
sS'collapsed'
p155
I00
sS'wrapping'
p156
I00
sS'immediate'
p157
I00
sS'label'
p158
g117
sS'singlestep'
p159
F1.0
sS'visible'
p160
I01
sS'inport'
p161
I00
sS'decimals'
p162
I2
sS'id'
p163
I4683457048
ssa(dp164
g41
S"<class 'gpi.widgets.DoubleSpinBox'>"
p165
sg43
S'Effective MTX Z'
p166
sg45
(dp167
S'outport'
p168
I00
sS'quietval'
p169
Nsg50
F300.0
sS'min'
p170
F2.0
sS'max'
p171
F1.7976931348623157e+308
sS'collapsed'
p172
I00
sS'wrapping'
p173
I00
sS'immediate'
p174
I00
sS'label'
p175
g117
sS'singlestep'
p176
F1.0
sS'visible'
p177
I00
sS'inport'
p178
I00
sS'decimals'
p179
I2
sS'id'
p180
I4683457960
ssa(dp181
g41
S"<class 'gpi.widgets.DoubleSpinBox'>"
p182
sg43
S'Taper'
p183
sg45
(dp184
S'outport'
p185
I00
sS'quietval'
p186
Nsg50
F0.1
sS'min'
p187
F0.0
sS'max'
p188
F1.0
sS'collapsed'
p189
I00
sS'wrapping'
p190
I00
sS'immediate'
p191
I00
sS'label'
p192
g117
sS'singlestep'
p193
F0.01
sS'visible'
p194
I01
sS'inport'
p195
I00
sS'decimals'
p196
I2
sS'id'
p197
I4683458872
ssasg68
S''
p198
ssg70
S'0.56144118309'
p199
sg43
S'SDC'
p200
sg73
(lp201
F-68.1
aF-20.349999999999994
asg75
(lp202
(dp203
g78
S'crds'
p204
sg80
I0
sg81
(lp205
(dp206
g84
(dp207
g86
g204
sg88
I4683459784
sg89
I0
sg90
I4683426864
ssg91
(dp208
g86
S'crds_out'
p209
sg88
I4683533968
sg89
I0
sg90
I4683470552
ssasg93
Nsg94
I65540
sg95
I100
sg96
I4683459784
sa(dp210
g78
S'wates'
p211
sg80
I1
sg81
(lp212
sg93
Nsg94
I65540
sg95
I200
sg96
I4683459936
sa(dp213
g78
g87
sg80
I2
sg81
(lp214
sg93
Nsg94
I65540
sg95
I200
sg96
I4683460088
sa(dp215
g78
S'sdc'
p216
sg80
I0
sg81
(lp217
(dp218
g84
(dp219
g86
S'weighting'
p220
sg88
I4683140600
sg89
I2
sg90
I4682972056
ssg91
(dp221
g86
g216
sg88
I4683460240
sg89
I0
sg90
I4683426864
ssasg93
Nsg94
I65541
sg95
Nsg96
I4683460240
sasg97
S'0.0478637940692'
p222
sg99
S'core.gridding.SDC'
p223
sg96
I4683426864
sg101
S'0.513407945633'
p224
sa(dp225
g36
(dp226
g38
(lp227
(dp228
g41
S"<class 'gpi.widgets.TextBox'>"
p229
sg43
S'I/O Info:'
p230
sg45
(dp231
S'openExternalLinks'
p232
I00
sS'outport'
p233
I00
sS'quietval'
p234
Nsg50
S'input: (5, 79, 825)\noutput: (79, 825)'
p235
sS'collapsed'
p236
I00
sS'inport'
p237
I00
sS'visible'
p238
I01
sS'wordwrap'
p239
I00
sS'id'
p240
I4683807184
ssa(dp241
g41
S"<class '/opt/gpi/lib/core/shapers/GPI/Reduce_GPI.ReduceSliders'>"
p242
sg43
S'Dimension[-1]'
p243
sg45
(dp244
S'outport'
p245
I00
sS'quietval'
p246
Nsg50
(dp247
S'width'
p248
I825
sS'ceiling'
p249
I825
sS'selection'
p250
I3
sS'center'
p251
I413
sS'floor'
p252
I1
ssS'min'
p253
I1
sS'max'
p254
I825
sS'collapsed'
p255
I00
sS'inport'
p256
I00
sS'visible'
p257
I01
sS'id'
p258
I4683807640
ssa(dp259
g41
S"<class '/opt/gpi/lib/core/shapers/GPI/Reduce_GPI.ReduceSliders'>"
p260
sg43
S'Dimension[-2]'
p261
sg45
(dp262
S'outport'
p263
I00
sS'quietval'
p264
Nsg50
(dp265
g248
I79
sg249
I79
sg250
I3
sg251
I40
sg252
I1
ssS'min'
p266
I1
sS'max'
p267
I79
sS'collapsed'
p268
I00
sS'inport'
p269
I00
sS'visible'
p270
I01
sS'id'
p271
I4683816744
ssa(dp272
g41
S"<class '/opt/gpi/lib/core/shapers/GPI/Reduce_GPI.ReduceSliders'>"
p273
sg43
S'Dimension[-3]'
p274
sg45
(dp275
S'outport'
p276
I00
sS'quietval'
p277
Nsg50
(dp278
g248
I1
sg249
I3
sg250
I2
sg251
I3
sg252
I3
ssS'min'
p279
I1
sS'max'
p280
I5
sS'collapsed'
p281
I00
sS'inport'
p282
I00
sS'visible'
p283
I01
sS'id'
p284
I4683821896
ssa(dp285
g41
S"<class '/opt/gpi/lib/core/shapers/GPI/Reduce_GPI.ReduceSliders'>"
p286
sg43
S'Dimension[-4]'
p287
sg45
(dp288
S'outport'
p289
I00
sS'quietval'
p290
Nsg50
(dp291
g248
I1
sg249
I1
sg250
I2
sg251
I1
sg252
I1
ssS'min'
p292
I1
sS'max'
p293
I2
sS'collapsed'
p294
I00
sS'inport'
p295
I00
sS'visible'
p296
I00
sS'id'
p297
I4683826904
ssa(dp298
g41
S"<class '/opt/gpi/lib/core/shapers/GPI/Reduce_GPI.ReduceSliders'>"
p299
sg43
S'Dimension[-5]'
p300
sg45
(dp301
S'outport'
p302
I00
sS'quietval'
p303
Nsg50
(dp304
g248
I1
sg249
I1
sg250
I2
sg251
I1
sg252
I1
ssS'min'
p305
I1
sS'max'
p306
I2
sS'collapsed'
p307
I00
sS'inport'
p308
I00
sS'visible'
p309
I00
sS'id'
p310
I4683831912
ssa(dp311
g41
S"<class '/opt/gpi/lib/core/shapers/GPI/Reduce_GPI.ReduceSliders'>"
p312
sg43
S'Dimension[-6]'
p313
sg45
(dp314
S'outport'
p315
I00
sS'quietval'
p316
Nsg50
(dp317
g248
I100
sg249
I100
sg250
I3
sg251
I51
sg252
I1
ssS'min'
p318
I1
sS'max'
p319
I100
sS'collapsed'
p320
I00
sS'inport'
p321
I00
sS'visible'
p322
I00
sS'id'
p323
I4683841016
ssa(dp324
g41
S"<class '/opt/gpi/lib/core/shapers/GPI/Reduce_GPI.ReduceSliders'>"
p325
sg43
S'Dimension[-7]'
p326
sg45
(dp327
S'outport'
p328
I00
sS'quietval'
p329
Nsg50
(dp330
g248
I100
sg249
I100
sg250
I3
sg251
I51
sg252
I1
ssS'min'
p331
I1
sS'max'
p332
I100
sS'collapsed'
p333
I00
sS'inport'
p334
I00
sS'visible'
p335
I00
sS'id'
p336
I4683846168
ssa(dp337
g41
S"<class '/opt/gpi/lib/core/shapers/GPI/Reduce_GPI.ReduceSliders'>"
p338
sg43
S'Dimension[-8]'
p339
sg45
(dp340
S'outport'
p341
I00
sS'quietval'
p342
Nsg50
(dp343
g248
I100
sg249
I100
sg250
I3
sg251
I51
sg252
I1
ssS'min'
p344
I1
sS'max'
p345
I100
sS'collapsed'
p346
I00
sS'inport'
p347
I00
sS'visible'
p348
I00
sS'id'
p349
I4683851176
ssa(dp350
g41
S"<class '/opt/gpi/lib/core/shapers/GPI/Reduce_GPI.ReduceSliders'>"
p351
sg43
S'Dimension[-9]'
p352
sg45
(dp353
S'outport'
p354
I00
sS'quietval'
p355
Nsg50
(dp356
g248
I100
sg249
I100
sg250
I3
sg251
I51
sg252
I1
ssS'min'
p357
I1
sS'max'
p358
I100
sS'collapsed'
p359
I00
sS'inport'
p360
I00
sS'visible'
p361
I00
sS'id'
p362
I4683856184
ssa(dp363
g41
S"<class '/opt/gpi/lib/core/shapers/GPI/Reduce_GPI.ReduceSliders'>"
p364
sg43
S'Dimension[-10]'
p365
sg45
(dp366
S'outport'
p367
I00
sS'quietval'
p368
Nsg50
(dp369
g248
I100
sg249
I100
sg250
I3
sg251
I51
sg252
I1
ssS'min'
p370
I1
sS'max'
p371
I100
sS'collapsed'
p372
I00
sS'inport'
p373
I00
sS'visible'
p374
I00
sS'id'
p375
I4683861192
ssa(dp376
g41
S"<class 'gpi.widgets.PushButton'>"
p377
sg43
S'Mask'
p378
sg45
(dp379
S'outport'
p380
I00
sS'quietval'
p381
Nsg50
I00
sS'collapsed'
p382
I00
sS'inport'
p383
I00
sS'visible'
p384
I01
sS'toggle'
p385
I01
sS'button_title'
p386
g117
sS'id'
p387
I4683866344
ssa(dp388
g41
S"<class 'gpi.widgets.PushButton'>"
p389
sg43
S'Compute'
p390
sg45
(dp391
S'outport'
p392
I00
sS'quietval'
p393
Nsg50
I01
sS'collapsed'
p394
I00
sS'inport'
p395
I00
sS'visible'
p396
I01
sS'toggle'
p397
I01
sS'button_title'
p398
g117
sS'id'
p399
I4683867104
ssasg68
g198
ssg70
S'0.161765503161'
p400
sg43
S'Reduce'
p401
sg73
(lp402
F74.9
aF-66.35
asg75
(lp403
(dp404
g78
S'in'
p405
sg80
I0
sg81
(lp406
(dp407
g84
(dp408
g86
g405
sg88
I4683867864
sg89
I0
sg90
I4683804752
ssg91
(dp409
g86
g79
sg88
I4727721616
sg89
I0
sg90
I4683760000
ssasg93
Nsg94
I65540
sg95
I100
sg96
I4683867864
sa(dp410
g78
g79
sg80
I0
sg81
(lp411
(dp412
g84
(dp413
g86
S'data'
p414
sg88
I4683140296
sg89
I0
sg90
I4682972056
ssg91
(dp415
g86
g79
sg88
I4683868016
sg89
I0
sg90
I4683804752
ssasg93
Nsg94
I65541
sg95
Nsg96
I4683868016
sa(dp416
g78
S'mask'
p417
sg80
I1
sg81
(lp418
sg93
Nsg94
I65541
sg95
Nsg96
I4683868168
sasg97
S'0.0312441877817'
p419
sg99
S'core.shapers.Reduce'
p420
sg96
I4683804752
sg101
S'0.159452915192'
p421
sa(dp422
g36
(dp423
g38
(lp424
(dp425
g41
S"<class 'gpi.widgets.ExclusivePushButtons'>"
p426
sg43
S'Complex Display'
p427
sg45
(dp428
S'outport'
p429
I00
sS'quietval'
p430
Nsg50
I4
sS'collapsed'
p431
I00
sS'inport'
p432
I00
sS'visible'
p433
I01
sS'id'
p434
I4683399552
ssa(dp435
g41
S"<class 'gpi.widgets.ExclusivePushButtons'>"
p436
sg43
S'Color Map'
p437
sg45
(dp438
S'outport'
p439
I00
sS'quietval'
p440
Nsg50
I0
sS'collapsed'
p441
I01
sS'inport'
p442
I00
sS'visible'
p443
I00
sS'id'
p444
I4683400616
ssa(dp445
g41
S"<class 'gpi.widgets.SpinBox'>"
p446
sg43
S'Edge Pixels'
p447
sg45
(dp448
S'outport'
p449
I00
sS'quietval'
p450
Nsg50
I0
sS'min'
p451
I0
sS'max'
p452
I2147483647
sS'collapsed'
p453
I00
sS'wrapping'
p454
I00
sS'immediate'
p455
I00
sS'label'
p456
g117
sS'singlestep'
p457
I1
sS'visible'
p458
I01
sS'inport'
p459
I00
sS'id'
p460
I4683401832
ssa(dp461
g41
S"<class 'gpi.widgets.SpinBox'>"
p462
sg43
S'Black Pixels'
p463
sg45
(dp464
S'outport'
p465
I00
sS'quietval'
p466
Nsg50
I0
sS'min'
p467
I0
sS'max'
p468
I2147483647
sS'collapsed'
p469
I00
sS'wrapping'
p470
I00
sS'immediate'
p471
I00
sS'label'
p472
g117
sS'singlestep'
p473
I1
sS'visible'
p474
I01
sS'inport'
p475
I00
sS'id'
p476
I4683402744
ssa(dp477
g41
S"<class 'gpi.widgets.DisplayBox'>"
p478
sg43
S'Viewport:'
p479
sg45
(dp480
S'outport'
p481
I00
sS'scale'
p482
F2.0
sS'quietval'
p483
Nsg50
NsS'collapsed'
p484
I00
sS'interp'
p485
I01
sS'inport'
p486
I00
sS'visible'
p487
I01
sS'noscroll'
p488
I01
sS'points'
p489
NsS'line'
p490
NsS'id'
p491
I4683403800
ssa(dp492
g41
S"<class '/opt/gpi/lib/core/display/GPI/ImageDisplay_GPI.WindowLevel'>"
p493
sg43
S'L W F C:'
p494
sg45
(dp495
S'outport'
p496
I00
sS'quietval'
p497
Nsg50
(dp498
S'window'
p499
I100
sg252
I0
sg249
I100
sS'level'
p500
I50
ssS'min'
p501
I0
sS'max'
p502
I100
sS'collapsed'
p503
I01
sS'inport'
p504
I00
sS'visible'
p505
I01
sS'id'
p506
I4683406232
ssa(dp507
g41
S"<class 'gpi.widgets.ExclusivePushButtons'>"
p508
sg43
S'Scalar Display'
p509
sg45
(dp510
S'outport'
p511
I00
sS'quietval'
p512
Nsg50
I0
sS'collapsed'
p513
I00
sS'inport'
p514
I00
sS'visible'
p515
I00
sS'id'
p516
I4683419280
ssa(dp517
g41
S"<class 'gpi.widgets.DoubleSpinBox'>"
p518
sg43
S'Gamma'
p519
sg45
(dp520
S'outport'
p521
I00
sS'quietval'
p522
Nsg50
F1.5
sS'min'
p523
F0.1
sS'max'
p524
F10.0
sS'collapsed'
p525
I00
sS'wrapping'
p526
I00
sS'immediate'
p527
I00
sS'label'
p528
g117
sS'singlestep'
p529
F0.05
sS'visible'
p530
I01
sS'inport'
p531
I00
sS'decimals'
p532
I3
sS'id'
p533
I4683420184
ssa(dp534
g41
S"<class 'gpi.widgets.ExclusivePushButtons'>"
p535
sg43
S'Zero Ref'
p536
sg45
(dp537
S'outport'
p538
I00
sS'quietval'
p539
Nsg50
I0
sS'collapsed'
p540
I00
sS'inport'
p541
I00
sS'visible'
p542
I00
sS'id'
p543
I4683421096
ssa(dp544
g41
S"<class 'gpi.widgets.PushButton'>"
p545
sg43
S'Fix Range'
p546
sg45
(dp547
S'outport'
p548
I00
sS'quietval'
p549
Nsg50
I00
sS'collapsed'
p550
I00
sS'inport'
p551
I00
sS'visible'
p552
I01
sS'toggle'
p553
I01
sS'button_title'
p554
VAuto-Range On
p555
sS'id'
p556
I4683422008
ssa(dp557
g41
S"<class 'gpi.widgets.DoubleSpinBox'>"
p558
sg43
S'Range Min'
p559
sg45
(dp560
S'outport'
p561
I00
sS'quietval'
p562
Nsg50
F0.0
sS'min'
p563
F-1.7976931348623157e+308
sS'max'
p564
F1.7976931348623157e+308
sS'collapsed'
p565
I00
sS'wrapping'
p566
I00
sS'immediate'
p567
I00
sS'label'
p568
g117
sS'singlestep'
p569
F1.0
sS'visible'
p570
I00
sS'inport'
p571
I00
sS'decimals'
p572
I2
sS'id'
p573
I4683422768
ssa(dp574
g41
S"<class 'gpi.widgets.DoubleSpinBox'>"
p575
sg43
S'Range Max'
p576
sg45
(dp577
S'outport'
p578
I00
sS'quietval'
p579
Nsg50
F0.01
sS'min'
p580
F-1.7976931348623157e+308
sS'max'
p581
F1.7976931348623157e+308
sS'collapsed'
p582
I00
sS'wrapping'
p583
I00
sS'immediate'
p584
I00
sS'label'
p585
g117
sS'singlestep'
p586
F1.0
sS'visible'
p587
I01
sS'inport'
p588
I00
sS'decimals'
p589
I2
sS'id'
p590
I4683423824
ssasg68
g198
ssg70
S'0.0239452021463'
p591
sg43
S'ImageDisplay'
p592
sg73
(lp593
F19.900000000000006
aF151.65
asg75
(lp594
(dp595
g78
g405
sg80
I0
sg81
(lp596
(dp597
g84
(dp598
g86
g405
sg88
I4683424736
sg89
I0
sg90
I4683151216
ssg91
(dp599
g86
g79
sg88
I4683636368
sg89
I0
sg90
I4683544432
ssasg93
Nsg94
I65540
sg95
I100
sg96
I4683424736
sa(dp600
g78
g79
sg80
I0
sg81
(lp601
sg93
Nsg94
I65541
sg95
Nsg96
I4683424888
sasg97
S'0.00364095890543'
p602
sg99
S'core.display.ImageDisplay'
p603
sg96
I4683151216
sg101
S'0.0269470214844'
p604
sa(dp605
g36
(dp606
g38
(lp607
(dp608
g41
S"<class 'gpi.widgets.PushButton'>"
p609
sg43
S'compute'
p610
sg45
(dp611
S'outport'
p612
I00
sS'quietval'
p613
Nsg50
I01
sS'collapsed'
p614
I00
sS'inport'
p615
I00
sS'visible'
p616
I01
sS'toggle'
p617
I01
sS'button_title'
p618
g117
sS'id'
p619
I4683501800
ssa(dp620
g41
S"<class 'gpi.widgets.TextBox'>"
p621
sg43
S'Info:'
p622
sg45
(dp623
S'openExternalLinks'
p624
I00
sS'outport'
p625
I00
sS'quietval'
p626
Nsg50
S'Samples: 825\nTau (ms): 3.96\nTGrad (ms): 4.9216\nTotal interleaves: 79'
p627
sS'collapsed'
p628
I00
sS'inport'
p629
I00
sS'visible'
p630
I01
sS'wordwrap'
p631
I00
sS'id'
p632
I4683502560
ssa(dp633
g41
S"<class 'gpi.widgets.DoubleSpinBox'>"
p634
sg43
S'AD dwell time (us)'
p635
sg45
(dp636
S'outport'
p637
I00
sS'quietval'
p638
Nsg50
F4.8
sS'min'
p639
F0.1
sS'max'
p640
F1.7976931348623157e+308
sS'collapsed'
p641
I00
sS'wrapping'
p642
I00
sS'immediate'
p643
I00
sS'label'
p644
g117
sS'singlestep'
p645
F1.0
sS'visible'
p646
I01
sS'inport'
p647
I00
sS'decimals'
p648
I6
sS'id'
p649
I4683503016
ssa(dp650
g41
S"<class 'gpi.widgets.DoubleSpinBox'>"
p651
sg43
S'x delay (us)'
p652
sg45
(dp653
S'outport'
p654
I00
sS'quietval'
p655
Nsg50
F-9.0
sS'min'
p656
F-100.0
sS'max'
p657
F100.0
sS'collapsed'
p658
I00
sS'wrapping'
p659
I00
sS'immediate'
p660
I00
sS'label'
p661
g117
sS'singlestep'
p662
F1.0
sS'visible'
p663
I01
sS'inport'
p664
I00
sS'decimals'
p665
I2
sS'id'
p666
I4683503928
ssa(dp667
g41
S"<class 'gpi.widgets.DoubleSpinBox'>"
p668
sg43
S'y delay (us)'
p669
sg45
(dp670
S'outport'
p671
I00
sS'quietval'
p672
Nsg50
F-9.0
sS'min'
p673
F-100.0
sS'max'
p674
F100.0
sS'collapsed'
p675
I00
sS'wrapping'
p676
I00
sS'immediate'
p677
I00
sS'label'
p678
g117
sS'singlestep'
p679
F1.0
sS'visible'
p680
I01
sS'inport'
p681
I00
sS'decimals'
p682
I2
sS'id'
p683
I4683504840
ssa(dp684
g41
S"<class 'gpi.widgets.DoubleSpinBox'>"
p685
sg43
S'z delay (us)'
p686
sg45
(dp687
S'outport'
p688
I00
sS'quietval'
p689
Nsg50
F0.0
sS'min'
p690
F-100.0
sS'max'
p691
F100.0
sS'collapsed'
p692
I00
sS'wrapping'
p693
I00
sS'immediate'
p694
I00
sS'label'
p695
g117
sS'singlestep'
p696
F1.0
sS'visible'
p697
I01
sS'inport'
p698
I00
sS'decimals'
p699
I2
sS'id'
p700
I4683505896
ssa(dp701
g41
S"<class 'gpi.widgets.DoubleSpinBox'>"
p702
sg43
S'MaxSlw (mT/m/ms)'
p703
sg45
(dp704
S'outport'
p705
I00
sS'quietval'
p706
Nsg50
F139.998993
sS'min'
p707
F0.01
sS'max'
p708
F1.7976931348623157e+308
sS'collapsed'
p709
I00
sS'wrapping'
p710
I00
sS'immediate'
p711
I00
sS'label'
p712
g117
sS'singlestep'
p713
F1.0
sS'visible'
p714
I01
sS'inport'
p715
I00
sS'decimals'
p716
I6
sS'id'
p717
I4683506808
ssa(dp718
g41
S"<class 'gpi.widgets.DoubleSpinBox'>"
p719
sg43
S'MaxGrd (mT/m)'
p720
sg45
(dp721
S'outport'
p722
I00
sS'quietval'
p723
Nsg50
F20.249001
sS'min'
p724
F0.01
sS'max'
p725
F1.7976931348623157e+308
sS'collapsed'
p726
I00
sS'wrapping'
p727
I00
sS'immediate'
p728
I00
sS'label'
p729
g117
sS'singlestep'
p730
F1.0
sS'visible'
p731
I01
sS'inport'
p732
I00
sS'decimals'
p733
I6
sS'id'
p734
I4683507720
ssa(dp735
g41
S"<class 'gpi.widgets.DoubleSpinBox'>"
p736
sg43
S'Gam (kHz/mT/ms)'
p737
sg45
(dp738
S'outport'
p739
I00
sS'quietval'
p740
Nsg50
F42.577469
sS'min'
p741
F0.01
sS'max'
p742
F1.7976931348623157e+308
sS'collapsed'
p743
I00
sS'wrapping'
p744
I00
sS'immediate'
p745
I00
sS'label'
p746
g117
sS'singlestep'
p747
F1.0
sS'visible'
p748
I01
sS'inport'
p749
I00
sS'decimals'
p750
I6
sS'id'
p751
I4683508632
ssa(dp752
g41
S"<class 'gpi.widgets.DoubleSpinBox'>"
p753
sg43
S'Fov X-Y (cm)'
p754
sg45
(dp755
S'outport'
p756
I00
sS'quietval'
p757
Nsg50
F24.0
sS'min'
p758
F0.1
sS'max'
p759
F1.7976931348623157e+308
sS'collapsed'
p760
I00
sS'wrapping'
p761
I00
sS'immediate'
p762
I00
sS'label'
p763
g117
sS'singlestep'
p764
F1.0
sS'visible'
p765
I01
sS'inport'
p766
I00
sS'decimals'
p767
I6
sS'id'
p768
I4683509544
ssa(dp769
g41
S"<class 'gpi.widgets.DoubleSpinBox'>"
p770
sg43
S'Fov Z (cm)'
p771
sg45
(dp772
S'outport'
p773
I00
sS'quietval'
p774
Nsg50
F0.5
sS'min'
p775
F0.1
sS'max'
p776
F1.7976931348623157e+308
sS'collapsed'
p777
I00
sS'wrapping'
p778
I00
sS'immediate'
p779
I00
sS'label'
p780
g117
sS'singlestep'
p781
F1.0
sS'visible'
p782
I01
sS'inport'
p783
I00
sS'decimals'
p784
I6
sS'id'
p785
I4683510600
ssa(dp786
g41
S"<class 'gpi.widgets.DoubleSpinBox'>"
p787
sg43
S'ImgRes X-Y (cm)'
p788
sg45
(dp789
S'outport'
p790
I00
sS'quietval'
p791
Nsg50
F0.1
sS'min'
p792
F0.01
sS'max'
p793
F1.7976931348623157e+308
sS'collapsed'
p794
I00
sS'wrapping'
p795
I00
sS'immediate'
p796
I00
sS'label'
p797
g117
sS'singlestep'
p798
F0.01
sS'visible'
p799
I01
sS'inport'
p800
I00
sS'decimals'
p801
I6
sS'id'
p802
I4683511512
ssa(dp803
g41
S"<class 'gpi.widgets.DoubleSpinBox'>"
p804
sg43
S'ImgRes Z (cm)'
p805
sg45
(dp806
S'outport'
p807
I00
sS'quietval'
p808
Nsg50
F0.5
sS'min'
p809
F0.01
sS'max'
p810
F1.7976931348623157e+308
sS'collapsed'
p811
I00
sS'wrapping'
p812
I00
sS'immediate'
p813
I00
sS'label'
p814
g117
sS'singlestep'
p815
F0.01
sS'visible'
p816
I01
sS'inport'
p817
I00
sS'decimals'
p818
I6
sS'id'
p819
I4683512424
ssa(dp820
g41
S"<class 'gpi.widgets.ExclusivePushButtons'>"
p821
sg43
S'stype'
p822
sg45
(dp823
S'outport'
p824
I00
sS'quietval'
p825
Nsg50
I0
sS'collapsed'
p826
I00
sS'inport'
p827
I00
sS'visible'
p828
I01
sS'id'
p829
I4683513336
ssa(dp830
g41
S"<class 'gpi.widgets.DoubleSpinBox'>"
p831
sg43
S'# of Spiral Arms'
p832
sg45
(dp833
S'outport'
p834
I00
sS'quietval'
p835
Nsg50
F79.0
sS'min'
p836
F0.0
sS'max'
p837
F1.7976931348623157e+308
sS'collapsed'
p838
I00
sS'wrapping'
p839
I00
sS'immediate'
p840
I00
sS'label'
p841
g117
sS'singlestep'
p842
F1.0
sS'visible'
p843
I01
sS'inport'
p844
I00
sS'decimals'
p845
I2
sS'id'
p846
I4683522584
ssa(dp847
g41
S"<class 'gpi.widgets.SpinBox'>"
p848
sg43
S'# of Hubs'
p849
sg45
(dp850
S'outport'
p851
I00
sS'quietval'
p852
Nsg50
I3
sS'min'
p853
I1
sS'max'
p854
I3
sS'collapsed'
p855
I00
sS'wrapping'
p856
I00
sS'immediate'
p857
I00
sS'label'
p858
g117
sS'singlestep'
p859
I1
sS'visible'
p860
I00
sS'inport'
p861
I00
sS'id'
p862
I4683523496
ssa(dp863
g41
S"<class 'gpi.widgets.DoubleSpinBox'>"
p864
sg43
S'Alpha0'
p865
sg45
(dp866
S'outport'
p867
I00
sS'quietval'
p868
Nsg50
F45.0
sS'min'
p869
F0.0
sS'max'
p870
F90.0
sS'collapsed'
p871
I00
sS'wrapping'
p872
I00
sS'immediate'
p873
I00
sS'label'
p874
g117
sS'singlestep'
p875
F1.0
sS'visible'
p876
I00
sS'inport'
p877
I00
sS'decimals'
p878
I2
sS'id'
p879
I4683524408
ssa(dp880
g41
S"<class 'gpi.widgets.DoubleSpinBox'>"
p881
sg43
S'usamp st (0 - 1)'
p882
sg45
(dp883
S'outport'
p884
I00
sS'quietval'
p885
Nsg50
F1.0
sS'min'
p886
F0.0
sS'max'
p887
F1.0
sS'collapsed'
p888
I00
sS'wrapping'
p889
I00
sS'immediate'
p890
I00
sS'label'
p891
g117
sS'singlestep'
p892
F0.01
sS'visible'
p893
I01
sS'inport'
p894
I00
sS'decimals'
p895
I2
sS'id'
p896
I4683525320
ssa(dp897
g41
S"<class 'gpi.widgets.DoubleSpinBox'>"
p898
sg43
S'usamp end (0 - 1)'
p899
sg45
(dp900
S'outport'
p901
I00
sS'quietval'
p902
Nsg50
F1.0
sS'min'
p903
F0.0
sS'max'
p904
F1.0
sS'collapsed'
p905
I00
sS'wrapping'
p906
I00
sS'immediate'
p907
I00
sS'label'
p908
g117
sS'singlestep'
p909
F0.01
sS'visible'
p910
I01
sS'inport'
p911
I00
sS'decimals'
p912
I2
sS'id'
p913
I4683526376
ssa(dp914
g41
S"<class 'gpi.widgets.DoubleSpinBox'>"
p915
sg43
S'max undersample'
p916
sg45
(dp917
S'outport'
p918
I00
sS'quietval'
p919
Nsg50
F1.0
sS'min'
p920
F0.0
sS'max'
p921
F100.0
sS'collapsed'
p922
I00
sS'wrapping'
p923
I00
sS'immediate'
p924
I00
sS'label'
p925
g117
sS'singlestep'
p926
F1.0
sS'visible'
p927
I01
sS'inport'
p928
I00
sS'decimals'
p929
I2
sS'id'
p930
I4683527288
ssa(dp931
g41
S"<class 'gpi.widgets.ExclusivePushButtons'>"
p932
sg43
S'ustype'
p933
sg45
(dp934
S'outport'
p935
I00
sS'quietval'
p936
Nsg50
I0
sS'collapsed'
p937
I00
sS'inport'
p938
I00
sS'visible'
p939
I01
sS'id'
p940
I4683528200
ssa(dp941
g41
S"<class 'gpi.widgets.DoubleSpinBox'>"
p942
sg43
S'Max G Freq (kHz)'
p943
sg45
(dp944
S'outport'
p945
I00
sS'quietval'
p946
Nsg50
F1.0
sS'min'
p947
F0.0
sS'max'
p948
F1.7976931348623157e+308
sS'collapsed'
p949
I00
sS'wrapping'
p950
I00
sS'immediate'
p951
I00
sS'label'
p952
g117
sS'singlestep'
p953
F1.0
sS'visible'
p954
I01
sS'inport'
p955
I00
sS'decimals'
p956
I2
sS'id'
p957
I4683528960
ssa(dp958
g41
S"<class 'gpi.widgets.DoubleSpinBox'>"
p959
sg43
S'T2 Match (ms)'
p960
sg45
(dp961
S'outport'
p962
I00
sS'quietval'
p963
Nsg50
F0.0
sS'min'
p964
F0.0
sS'max'
p965
F1.7976931348623157e+308
sS'collapsed'
p966
I00
sS'wrapping'
p967
I00
sS'immediate'
p968
I00
sS'label'
p969
g117
sS'singlestep'
p970
F1.0
sS'visible'
p971
I01
sS'inport'
p972
I00
sS'decimals'
p973
I2
sS'id'
p974
I4683529872
ssa(dp975
g41
S"<class 'gpi.widgets.DoubleSpinBox'>"
p976
sg43
S'Sloppy Sp. Per (0:off)'
p977
sg45
(dp978
S'outport'
p979
I00
sS'quietval'
p980
Nsg50
F0.0
sS'min'
p981
F0.0
sS'max'
p982
F1.7976931348623157e+308
sS'collapsed'
p983
I00
sS'wrapping'
p984
I00
sS'immediate'
p985
I00
sS'label'
p986
g117
sS'singlestep'
p987
F1.0
sS'visible'
p988
I01
sS'inport'
p989
I00
sS'decimals'
p990
I2
sS'id'
p991
I4683530928
ssa(dp992
g41
S"<class 'gpi.widgets.ExclusivePushButtons'>"
p993
sg43
S'gtype'
p994
sg45
(dp995
S'outport'
p996
I00
sS'quietval'
p997
Nsg50
I2
sS'collapsed'
p998
I00
sS'inport'
p999
I00
sS'visible'
p1000
I01
sS'id'
p1001
I4683531840
ssa(dp1002
g41
S"<class 'gpi.widgets.ExclusivePushButtons'>"
p1003
sg43
S'spinout'
p1004
sg45
(dp1005
S'outport'
p1006
I00
sS'quietval'
p1007
Nsg50
I0
sS'collapsed'
p1008
I00
sS'inport'
p1009
I00
sS'visible'
p1010
I01
sS'id'
p1011
I4683532752
ssasg68
g198
ssg70
S'0.180613517761'
p1012
sg43
S'SpiralCoords'
p1013
sg73
(lp1014
F-53.099999999999994
aF-88.35
asg75
(lp1015
(dp1016
g78
g87
sg80
I0
sg81
(lp1017
(dp1018
g84
(dp1019
g86
g87
sg88
I4683533664
sg89
I0
sg90
I4683470552
ssg91
(dp1020
g86
g79
sg88
I4774455152
sg89
I0
sg90
I4774414344
ssasg93
Nsg94
I65540
sg95
I200
sg96
I4683533664
sa(dp1021
g78
S'arm_0'
p1022
sg80
I1
sg81
(lp1023
sg93
Nsg94
I65540
sg95
I200
sg96
I4683533816
sa(dp1024
g78
g209
sg80
I0
sg81
(lp1025
(dp1026
g84
(dp1027
g86
S'coords'
p1028
sg88
I4683140448
sg89
I1
sg90
I4682972056
ssg91
(dp1029
g86
g209
sg88
I4683533968
sg89
I0
sg90
I4683470552
ssa(dp1030
g84
(dp1031
g86
g204
sg88
I4683459784
sg89
I0
sg90
I4683426864
ssg91
(dp1032
g86
g209
sg88
I4683533968
sg89
I0
sg90
I4683470552
ssasg93
Nsg94
I65541
sg95
Nsg96
I4683533968
sa(dp1033
g78
S'grd_out'
p1034
sg80
I1
sg81
(lp1035
sg93
Nsg94
I65541
sg95
Nsg96
I4683534120
sasg97
S'0.0345436297274'
p1036
sg99
S'core.spiral.SpiralCoords'
p1037
sg96
I4683470552
sg101
S'0.170198917389'
p1038
sa(dp1039
g36
(dp1040
g38
(lp1041
(dp1042
g41
S"<class '/opt/gpi/lib/core/math/GPI/FFT_NUMPY_GPI.FFTW_GROUP'>"
p1043
sg43
S'Dimension[-1]'
p1044
sg45
(dp1045
S'outport'
p1046
I00
sS'quietval'
p1047
Nsg50
(dp1048
S'length'
p1049
I450
sS'in_len'
p1050
I450
sg610
I01
ssS'collapsed'
p1051
I00
sS'inport'
p1052
I00
sS'visible'
p1053
I01
sS'id'
p1054
I4683674440
ssa(dp1055
g41
S"<class '/opt/gpi/lib/core/math/GPI/FFT_NUMPY_GPI.FFTW_GROUP'>"
p1056
sg43
S'Dimension[-2]'
p1057
sg45
(dp1058
S'outport'
p1059
I00
sS'quietval'
p1060
Nsg50
(dp1061
g1049
I450
sg1050
I450
sg610
I01
ssS'collapsed'
p1062
I00
sS'inport'
p1063
I00
sS'visible'
p1064
I01
sS'id'
p1065
I4683676416
ssa(dp1066
g41
S"<class '/opt/gpi/lib/core/math/GPI/FFT_NUMPY_GPI.FFTW_GROUP'>"
p1067
sg43
S'Dimension[-3]'
p1068
sg45
(dp1069
S'outport'
p1070
I00
sS'quietval'
p1071
Nsg50
(dp1072
g1049
I20
sg1050
I20
sg610
I00
ssS'collapsed'
p1073
I00
sS'inport'
p1074
I00
sS'visible'
p1075
I00
sS'id'
p1076
I4683678536
ssa(dp1077
g41
S"<class '/opt/gpi/lib/core/math/GPI/FFT_NUMPY_GPI.FFTW_GROUP'>"
p1078
sg43
S'Dimension[-4]'
p1079
sg45
(dp1080
S'outport'
p1081
I00
sS'quietval'
p1082
Nsg50
(dp1083
g1049
I1
sg1050
I1
sg610
I00
ssS'collapsed'
p1084
I00
sS'inport'
p1085
I00
sS'visible'
p1086
I00
sS'id'
p1087
I4683680512
ssa(dp1088
g41
S"<class '/opt/gpi/lib/core/math/GPI/FFT_NUMPY_GPI.FFTW_GROUP'>"
p1089
sg43
S'Dimension[-5]'
p1090
sg45
(dp1091
S'outport'
p1092
I00
sS'quietval'
p1093
Nsg50
(dp1094
g1049
I1
sg1050
I1
sg610
I00
ssS'collapsed'
p1095
I00
sS'inport'
p1096
I00
sS'visible'
p1097
I00
sS'id'
p1098
I4683682632
ssa(dp1099
g41
S"<class '/opt/gpi/lib/core/math/GPI/FFT_NUMPY_GPI.FFTW_GROUP'>"
p1100
sg43
S'Dimension[-6]'
p1101
sg45
(dp1102
S'outport'
p1103
I00
sS'quietval'
p1104
Nsg50
(dp1105
g1049
I1
sg1050
I1
sg610
I00
ssS'collapsed'
p1106
I00
sS'inport'
p1107
I00
sS'visible'
p1108
I00
sS'id'
p1109
I4683684608
ssa(dp1110
g41
S"<class '/opt/gpi/lib/core/math/GPI/FFT_NUMPY_GPI.FFTW_GROUP'>"
p1111
sg43
S'Dimension[-7]'
p1112
sg45
(dp1113
S'outport'
p1114
I00
sS'quietval'
p1115
Nsg50
(dp1116
g1049
I1
sg1050
I1
sg610
I00
ssS'collapsed'
p1117
I00
sS'inport'
p1118
I00
sS'visible'
p1119
I00
sS'id'
p1120
I4683690824
ssa(dp1121
g41
S"<class '/opt/gpi/lib/core/math/GPI/FFT_NUMPY_GPI.FFTW_GROUP'>"
p1122
sg43
S'Dimension[-8]'
p1123
sg45
(dp1124
S'outport'
p1125
I00
sS'quietval'
p1126
Nsg50
(dp1127
g1049
I1
sg1050
I1
sg610
I00
ssS'collapsed'
p1128
I00
sS'inport'
p1129
I00
sS'visible'
p1130
I00
sS'id'
p1131
I4683692800
ssa(dp1132
g41
S"<class '/opt/gpi/lib/core/math/GPI/FFT_NUMPY_GPI.FFTW_GROUP'>"
p1133
sg43
S'Dimension[-9]'
p1134
sg45
(dp1135
S'outport'
p1136
I00
sS'quietval'
p1137
Nsg50
(dp1138
g1049
I1
sg1050
I1
sg610
I00
ssS'collapsed'
p1139
I00
sS'inport'
p1140
I00
sS'visible'
p1141
I00
sS'id'
p1142
I4683694920
ssa(dp1143
g41
S"<class 'gpi.widgets.PushButton'>"
p1144
sg43
g610
sg45
(dp1145
S'outport'
p1146
I00
sS'quietval'
p1147
Nsg50
I01
sS'collapsed'
p1148
I00
sS'inport'
p1149
I00
sS'visible'
p1150
I01
sS'toggle'
p1151
I01
sS'button_title'
p1152
g117
sS'id'
p1153
I4683696896
ssa(dp1154
g41
S"<class 'gpi.widgets.PushButton'>"
p1155
sg43
S'direction'
p1156
sg45
(dp1157
S'outport'
p1158
I00
sS'quietval'
p1159
Nsg50
I01
sS'collapsed'
p1160
I00
sS'inport'
p1161
I00
sS'visible'
p1162
I01
sS'toggle'
p1163
I01
sS'button_title'
p1164
VINVERSE
p1165
sS'id'
p1166
I4683697656
ssasg68
g198
ssg70
S'0.262088366917'
p1167
sg43
S'FFT_NUMPY'
p1168
sg73
(lp1169
F19.900000000000006
aF62.650000000000006
asg75
(lp1170
(dp1171
g78
g405
sg80
I0
sg81
(lp1172
(dp1173
g84
(dp1174
g86
g405
sg88
I4683702656
sg89
I0
sg90
I4683643192
ssg91
(dp1175
g86
g79
sg88
I4683140904
sg89
I0
sg90
I4682972056
ssasg93
Nsg94
I65540
sg95
I100
sg96
I4683702656
sa(dp1176
g78
g79
sg80
I0
sg81
(lp1177
(dp1178
g84
(dp1179
g86
g414
sg88
I4683777904
sg89
I0
sg90
I4683761064
ssg91
(dp1180
g86
g79
sg88
I4683702808
sg89
I0
sg90
I4683643192
ssasg93
Nsg94
I65541
sg95
Nsg96
I4683702808
sasg97
S'0.341253366242'
p1181
sg99
S'core.math.FFT_NUMPY'
p1182
sg96
I4683643192
sg101
S'0.163247823715'
p1183
sa(dp1184
g36
(dp1185
g38
(lp1186
(dp1187
g41
S"<class 'gpi.widgets.TextBox'>"
p1188
sg43
S'I/O Info:'
p1189
sg45
(dp1190
S'openExternalLinks'
p1191
I00
sS'outport'
p1192
I00
sS'quietval'
p1193
Nsg50
S'input: (300, 300)\noutput: (300, 300)'
p1194
sS'collapsed'
p1195
I00
sS'inport'
p1196
I00
sS'visible'
p1197
I01
sS'wordwrap'
p1198
I00
sS'id'
p1199
I4683575680
ssa(dp1200
g41
S"<class '/opt/gpi/lib/core/shapers/GPI/Reduce_GPI.ReduceSliders'>"
p1201
sg43
S'Dimension[-1]'
p1202
sg45
(dp1203
S'outport'
p1204
I00
sS'quietval'
p1205
Nsg50
(dp1206
g248
I300
sg249
I300
sg250
I3
sg251
I151
sg252
I1
ssS'min'
p1207
I1
sS'max'
p1208
I300
sS'collapsed'
p1209
I00
sS'inport'
p1210
I00
sS'visible'
p1211
I01
sS'id'
p1212
I4683576136
ssa(dp1213
g41
S"<class '/opt/gpi/lib/core/shapers/GPI/Reduce_GPI.ReduceSliders'>"
p1214
sg43
S'Dimension[-2]'
p1215
sg45
(dp1216
S'outport'
p1217
I00
sS'quietval'
p1218
Nsg50
(dp1219
g248
I300
sg249
I300
sg250
I3
sg251
I151
sg252
I1
ssS'min'
p1220
I1
sS'max'
p1221
I300
sS'collapsed'
p1222
I00
sS'inport'
p1223
I00
sS'visible'
p1224
I01
sS'id'
p1225
I4683581144
ssa(dp1226
g41
S"<class '/opt/gpi/lib/core/shapers/GPI/Reduce_GPI.ReduceSliders'>"
p1227
sg43
S'Dimension[-3]'
p1228
sg45
(dp1229
S'outport'
p1230
I00
sS'quietval'
p1231
Nsg50
(dp1232
g248
I1
sg249
I6
sg250
I2
sg251
I6
sg252
I6
ssS'min'
p1233
I1
sS'max'
p1234
I20
sS'collapsed'
p1235
I00
sS'inport'
p1236
I00
sS'visible'
p1237
I00
sS'id'
p1238
I4683586152
ssa(dp1239
g41
S"<class '/opt/gpi/lib/core/shapers/GPI/Reduce_GPI.ReduceSliders'>"
p1240
sg43
S'Dimension[-4]'
p1241
sg45
(dp1242
S'outport'
p1243
I00
sS'quietval'
p1244
Nsg50
(dp1245
g248
I100
sg249
I100
sg250
I3
sg251
I51
sg252
I1
ssS'min'
p1246
I1
sS'max'
p1247
I100
sS'collapsed'
p1248
I00
sS'inport'
p1249
I00
sS'visible'
p1250
I00
sS'id'
p1251
I4683591160
ssa(dp1252
g41
S"<class '/opt/gpi/lib/core/shapers/GPI/Reduce_GPI.ReduceSliders'>"
p1253
sg43
S'Dimension[-5]'
p1254
sg45
(dp1255
S'outport'
p1256
I00
sS'quietval'
p1257
Nsg50
(dp1258
g248
I100
sg249
I100
sg250
I3
sg251
I51
sg252
I1
ssS'min'
p1259
I1
sS'max'
p1260
I100
sS'collapsed'
p1261
I00
sS'inport'
p1262
I00
sS'visible'
p1263
I00
sS'id'
p1264
I4683596312
ssa(dp1265
g41
S"<class '/opt/gpi/lib/core/shapers/GPI/Reduce_GPI.ReduceSliders'>"
p1266
sg43
S'Dimension[-6]'
p1267
sg45
(dp1268
S'outport'
p1269
I00
sS'quietval'
p1270
Nsg50
(dp1271
g248
I100
sg249
I100
sg250
I3
sg251
I51
sg252
I1
ssS'min'
p1272
I1
sS'max'
p1273
I100
sS'collapsed'
p1274
I00
sS'inport'
p1275
I00
sS'visible'
p1276
I00
sS'id'
p1277
I4683601320
ssa(dp1278
g41
S"<class '/opt/gpi/lib/core/shapers/GPI/Reduce_GPI.ReduceSliders'>"
p1279
sg43
S'Dimension[-7]'
p1280
sg45
(dp1281
S'outport'
p1282
I00
sS'quietval'
p1283
Nsg50
(dp1284
g248
I100
sg249
I100
sg250
I3
sg251
I51
sg252
I1
ssS'min'
p1285
I1
sS'max'
p1286
I100
sS'collapsed'
p1287
I00
sS'inport'
p1288
I00
sS'visible'
p1289
I00
sS'id'
p1290
I4683606328
ssa(dp1291
g41
S"<class '/opt/gpi/lib/core/shapers/GPI/Reduce_GPI.ReduceSliders'>"
p1292
sg43
S'Dimension[-8]'
p1293
sg45
(dp1294
S'outport'
p1295
I00
sS'quietval'
p1296
Nsg50
(dp1297
g248
I100
sg249
I100
sg250
I3
sg251
I51
sg252
I1
ssS'min'
p1298
I1
sS'max'
p1299
I100
sS'collapsed'
p1300
I00
sS'inport'
p1301
I00
sS'visible'
p1302
I00
sS'id'
p1303
I4683611336
ssa(dp1304
g41
S"<class '/opt/gpi/lib/core/shapers/GPI/Reduce_GPI.ReduceSliders'>"
p1305
sg43
S'Dimension[-9]'
p1306
sg45
(dp1307
S'outport'
p1308
I00
sS'quietval'
p1309
Nsg50
(dp1310
g248
I100
sg249
I100
sg250
I3
sg251
I51
sg252
I1
ssS'min'
p1311
I1
sS'max'
p1312
I100
sS'collapsed'
p1313
I00
sS'inport'
p1314
I00
sS'visible'
p1315
I00
sS'id'
p1316
I4683620584
ssa(dp1317
g41
S"<class '/opt/gpi/lib/core/shapers/GPI/Reduce_GPI.ReduceSliders'>"
p1318
sg43
S'Dimension[-10]'
p1319
sg45
(dp1320
S'outport'
p1321
I00
sS'quietval'
p1322
Nsg50
(dp1323
g248
I100
sg249
I100
sg250
I3
sg251
I51
sg252
I1
ssS'min'
p1324
I1
sS'max'
p1325
I100
sS'collapsed'
p1326
I00
sS'inport'
p1327
I00
sS'visible'
p1328
I00
sS'id'
p1329
I4683629688
ssa(dp1330
g41
S"<class 'gpi.widgets.PushButton'>"
p1331
sg43
g378
sg45
(dp1332
S'outport'
p1333
I00
sS'quietval'
p1334
Nsg50
I00
sS'collapsed'
p1335
I00
sS'inport'
p1336
I00
sS'visible'
p1337
I01
sS'toggle'
p1338
I01
sS'button_title'
p1339
g117
sS'id'
p1340
I4683634696
ssa(dp1341
g41
S"<class 'gpi.widgets.PushButton'>"
p1342
sg43
g390
sg45
(dp1343
S'outport'
p1344
I00
sS'quietval'
p1345
Nsg50
I01
sS'collapsed'
p1346
I00
sS'inport'
p1347
I00
sS'visible'
p1348
I01
sS'toggle'
p1349
I01
sS'button_title'
p1350
g117
sS'id'
p1351
I4683635456
ssasg68
g198
ssg70
S'0.165184995106'
p1352
sg43
g401
sg73
(lp1353
F19.900000000000006
aF121.65
asg75
(lp1354
(dp1355
g78
g405
sg80
I0
sg81
(lp1356
(dp1357
g84
(dp1358
g86
g405
sg88
I4683636216
sg89
I0
sg90
I4683544432
ssg91
(dp1359
g86
g79
sg88
I4683778056
sg89
I0
sg90
I4683761064
ssasg93
Nsg94
I65540
sg95
I100
sg96
I4683636216
sa(dp1360
g78
g79
sg80
I0
sg81
(lp1361
(dp1362
g84
(dp1363
g86
g405
sg88
I4683424736
sg89
I0
sg90
I4683151216
ssg91
(dp1364
g86
g79
sg88
I4683636368
sg89
I0
sg90
I4683544432
ssasg93
Nsg94
I65541
sg95
Nsg96
I4683636368
sa(dp1365
g78
g417
sg80
I1
sg81
(lp1366
sg93
Nsg94
I65541
sg95
Nsg96
I4683636520
sasg97
S'0.00853652291397'
p1367
sg99
g420
sg96
I4683544432
sg101
S'0.166079044342'
p1368
sa(dp1369
g36
(dp1370
g38
(lp1371
(dp1372
g41
S"<class 'gpi.widgets.TextBox'>"
p1373
sg43
S'I/O Info:'
p1374
sg45
(dp1375
S'openExternalLinks'
p1376
I00
sS'outport'
p1377
I00
sS'quietval'
p1378
Nsg50
S'created: 07/11/2014\naccessed: 07/11/2014\nmodified: 07/11/2014\nUID: 501\nGID: 20\nfile size (bytes): 2607080\ndimensions: [5, 79, 825]\ntype: complex64\n'
p1379
sS'collapsed'
p1380
I00
sS'inport'
p1381
I00
sS'visible'
p1382
I01
sS'wordwrap'
p1383
I00
sS'id'
p1384
I4703312032
ssa(dp1385
g41
S"<class 'gpi.widgets.OpenFileBrowser'>"
p1386
sg43
S'File Browser'
p1387
sg45
(dp1388
S'outport'
p1389
I00
sS'quietval'
p1390
Nsg50
S'/opt/gpi/doc/Examples/spiral_MS.npy'
p1391
sS'collapsed'
p1392
I00
sS'inport'
p1393
I00
sS'visible'
p1394
I01
sS'id'
p1395
I4727721312
ssa(dp1396
g41
S"<class 'gpi.widgets.PushButton'>"
p1397
sg43
S'Squeeze'
p1398
sg45
(dp1399
S'outport'
p1400
I00
sS'quietval'
p1401
Nsg50
I00
sS'collapsed'
p1402
I00
sS'inport'
p1403
I00
sS'visible'
p1404
I01
sS'toggle'
p1405
I01
sS'button_title'
p1406
g117
sS'id'
p1407
I4727720856
ssasg68
S'Raw Data'
p1408
ssg70
S'0.0549614429474'
p1409
sg43
S'ReadNPY'
p1410
sg73
(lp1411
F-23.099999999999994
aF-158.35
asg75
(lp1412
(dp1413
g78
g79
sg80
I0
sg81
(lp1414
(dp1415
g84
(dp1416
g86
g405
sg88
I4683867864
sg89
I0
sg90
I4683804752
ssg91
(dp1417
g86
g79
sg88
I4727721616
sg89
I0
sg90
I4683760000
ssasg93
Nsg94
I65541
sg95
Nsg96
I4727721616
sasg97
S'0.0119025707245'
p1418
sg99
S'core.fileIO.ReadNPY'
p1419
sg96
I4683760000
sg101
S'0.0668640136719'
p1420
sa(dp1421
g36
(dp1422
g38
(lp1423
(dp1424
g41
S"<class 'gpi.widgets.Slider'>"
p1425
sg43
S'Dims per Set'
p1426
sg45
(dp1427
S'outport'
p1428
I00
sS'quietval'
p1429
Nsg50
I2
sS'min'
p1430
I1
sS'max'
p1431
I2
sS'collapsed'
p1432
I00
sS'inport'
p1433
I00
sS'visible'
p1434
I01
sS'id'
p1435
I4683117992
ssa(dp1436
g41
S"<class 'gpi.widgets.SpinBox'>"
p1437
sg43
S'Eff MTX XY'
p1438
sg45
(dp1439
S'outport'
p1440
I00
sS'quietval'
p1441
Nsg50
I300
sS'min'
p1442
I5
sS'max'
p1443
I2147483647
sS'collapsed'
p1444
I00
sS'wrapping'
p1445
I00
sS'immediate'
p1446
I00
sS'label'
p1447
g117
sS'singlestep'
p1448
I1
sS'visible'
p1449
I01
sS'inport'
p1450
I00
sS'id'
p1451
I4683119208
ssa(dp1452
g41
S"<class 'gpi.widgets.SpinBox'>"
p1453
sg43
S'Eff MTX Z'
p1454
sg45
(dp1455
S'outport'
p1456
I00
sS'quietval'
p1457
Nsg50
I240
sS'min'
p1458
I5
sS'max'
p1459
I2147483647
sS'collapsed'
p1460
I00
sS'wrapping'
p1461
I00
sS'immediate'
p1462
I00
sS'label'
p1463
g117
sS'singlestep'
p1464
I1
sS'visible'
p1465
I00
sS'inport'
p1466
I00
sS'id'
p1467
I4683120120
ssa(dp1468
g41
S"<class 'gpi.widgets.DoubleSpinBox'>"
p1469
sg43
S'dx (pixels)'
p1470
sg45
(dp1471
S'outport'
p1472
I00
sS'quietval'
p1473
Nsg50
F0.0
sS'min'
p1474
F-1.7976931348623157e+308
sS'max'
p1475
F1.7976931348623157e+308
sS'collapsed'
p1476
I00
sS'wrapping'
p1477
I00
sS'immediate'
p1478
I00
sS'label'
p1479
g117
sS'singlestep'
p1480
F1.0
sS'visible'
p1481
I01
sS'inport'
p1482
I00
sS'decimals'
p1483
I2
sS'id'
p1484
I4683137560
ssa(dp1485
g41
S"<class 'gpi.widgets.DoubleSpinBox'>"
p1486
sg43
S'dy (pixels)'
p1487
sg45
(dp1488
S'outport'
p1489
I00
sS'quietval'
p1490
Nsg50
F-10.0
sS'min'
p1491
F-1.7976931348623157e+308
sS'max'
p1492
F1.7976931348623157e+308
sS'collapsed'
p1493
I00
sS'wrapping'
p1494
I00
sS'immediate'
p1495
I00
sS'label'
p1496
g117
sS'singlestep'
p1497
F1.0
sS'visible'
p1498
I01
sS'inport'
p1499
I00
sS'decimals'
p1500
I2
sS'id'
p1501
I4683138472
ssa(dp1502
g41
S"<class 'gpi.widgets.DoubleSpinBox'>"
p1503
sg43
S'dz (pixels)'
p1504
sg45
(dp1505
S'outport'
p1506
I00
sS'quietval'
p1507
Nsg50
F0.0
sS'min'
p1508
F-1.7976931348623157e+308
sS'max'
p1509
F1.7976931348623157e+308
sS'collapsed'
p1510
I00
sS'wrapping'
p1511
I00
sS'immediate'
p1512
I00
sS'label'
p1513
g117
sS'singlestep'
p1514
F1.0
sS'visible'
p1515
I01
sS'inport'
p1516
I00
sS'decimals'
p1517
I2
sS'id'
p1518
I4683139384
ssasg68
g198
ssg70
S'0.211175857271'
p1519
sg43
S'Grid'
p1520
sg73
(lp1521
F19.900000000000006
aF32.650000000000006
asg75
(lp1522
(dp1523
g78
g414
sg80
I0
sg81
(lp1524
(dp1525
g84
(dp1526
g86
g414
sg88
I4683140296
sg89
I0
sg90
I4682972056
ssg91
(dp1527
g86
g79
sg88
I4683868016
sg89
I0
sg90
I4683804752
ssasg93
Nsg94
I65540
sg95
I200
sg96
I4683140296
sa(dp1528
g78
g1028
sg80
I1
sg81
(lp1529
(dp1530
g84
(dp1531
g86
g1028
sg88
I4683140448
sg89
I1
sg90
I4682972056
ssg91
(dp1532
g86
g209
sg88
I4683533968
sg89
I0
sg90
I4683470552
ssasg93
Nsg94
I65540
sg95
I100
sg96
I4683140448
sa(dp1533
g78
g220
sg80
I2
sg81
(lp1534
(dp1535
g84
(dp1536
g86
g220
sg88
I4683140600
sg89
I2
sg90
I4682972056
ssg91
(dp1537
g86
g216
sg88
I4683460240
sg89
I0
sg90
I4683426864
ssasg93
Nsg94
I65540
sg95
I200
sg96
I4683140600
sa(dp1538
g78
g87
sg80
I3
sg81
(lp1539
sg93
Nsg94
I65540
sg95
I200
sg96
I4683140752
sa(dp1540
g78
g79
sg80
I0
sg81
(lp1541
(dp1542
g84
(dp1543
g86
g405
sg88
I4683702656
sg89
I0
sg90
I4683643192
ssg91
(dp1544
g86
g79
sg88
I4683140904
sg89
I0
sg90
I4682972056
ssasg93
Nsg94
I65541
sg95
Nsg96
I4683140904
sasg97
S'0.193423364218'
p1545
sg99
S'core.gridding.Grid'
p1546
sg96
I4682972056
sg101
S'0.161885976791'
p1547
sa(dp1548
g36
(dp1549
g38
(lp1550
(dp1551
g41
S"<class 'gpi.widgets.Slider'>"
p1552
sg43
S'Num Rolloff Dims'
p1553
sg45
(dp1554
S'outport'
p1555
I00
sS'quietval'
p1556
Nsg50
I2
sS'min'
p1557
I1
sS'max'
p1558
I3
sS'collapsed'
p1559
I00
sS'inport'
p1560
I00
sS'visible'
p1561
I01
sS'id'
p1562
I4683763496
ssa(dp1563
g41
S"<class 'gpi.widgets.PushButton'>"
p1564
sg43
S'Isotropic FOV'
p1565
sg45
(dp1566
S'outport'
p1567
I00
sS'quietval'
p1568
Nsg50
I01
sS'collapsed'
p1569
I00
sS'inport'
p1570
I00
sS'visible'
p1571
I01
sS'toggle'
p1572
I01
sS'button_title'
p1573
g117
sS'id'
p1574
I4683777144
ssasg68
g198
ssg70
S'0.188758325577'
p1575
sg43
S'Rolloff'
p1576
sg73
(lp1577
F19.900000000000006
aF92.65
asg75
(lp1578
(dp1579
g78
g414
sg80
I0
sg81
(lp1580
(dp1581
g84
(dp1582
g86
g414
sg88
I4683777904
sg89
I0
sg90
I4683761064
ssg91
(dp1583
g86
g79
sg88
I4683702808
sg89
I0
sg90
I4683643192
ssasg93
Nsg94
I65540
sg95
I100
sg96
I4683777904
sa(dp1584
g78
g79
sg80
I0
sg81
(lp1585
(dp1586
g84
(dp1587
g86
g405
sg88
I4683636216
sg89
I0
sg90
I4683544432
ssg91
(dp1588
g86
g79
sg88
I4683778056
sg89
I0
sg90
I4683761064
ssasg93
Nsg94
I65541
sg95
Nsg96
I4683778056
sasg97
S'0.128213977277'
p1589
sg99
S'core.gridding.Rolloff'
p1590
sg96
I4683761064
sg101
S'0.164917945862'
p1591
sassS'WALLTIME'
p1592
S'1.53447699547'
p1593
s.